Component: ARM Compiler 5.06 (build 20) Tool: armlink [4d35a3]

==============================================================================

Section Cross References

    main.o(i.EXTI0_IRQHandler) refers to stm32f4xx_exti.o(i.EXTI_GetITStatus) for EXTI_GetITStatus
    main.o(i.EXTI0_IRQHandler) refers to stm32f4xx_exti.o(i.EXTI_ClearITPendingBit) for EXTI_ClearITPendingBit
    main.o(i.EXTI0_IRQHandler) refers to main.o(.data) for back
    main.o(i.EXTI15_10_IRQHandler) refers to stm32f4xx_exti.o(i.EXTI_GetITStatus) for EXTI_GetITStatus
    main.o(i.EXTI15_10_IRQHandler) refers to stm32f4xx_gpio.o(i.GPIO_WriteBit) for GPIO_WriteBit
    main.o(i.EXTI15_10_IRQHandler) refers to rt_cmsis.o(i.osSignalSet) for osSignalSet
    main.o(i.EXTI15_10_IRQHandler) refers to stm32f4xx_exti.o(i.EXTI_ClearITPendingBit) for EXTI_ClearITPendingBit
    main.o(i.EXTI15_10_IRQHandler) refers to main.o(.data) for room1
    main.o(i.USART6_IRQHandler) refers to stm32f4xx_usart.o(i.USART_GetITStatus) for USART_GetITStatus
    main.o(i.USART6_IRQHandler) refers to strcmpv7m.o(.text) for strcmp
    main.o(i.USART6_IRQHandler) refers to strcpy.o(.text) for strcpy
    main.o(i.USART6_IRQHandler) refers to strstr.o(.text) for strstr
    main.o(i.USART6_IRQHandler) refers to main.o(i.USART_puts) for USART_puts
    main.o(i.USART6_IRQHandler) refers to rt_cmsis.o(i.osSignalSet) for osSignalSet
    main.o(i.USART6_IRQHandler) refers to main.o(.data) for cnt
    main.o(i.USART6_IRQHandler) refers to main.o(.bss) for received_str
    main.o(i.USART_puts) refers to stm32f4xx_usart.o(i.USART_GetFlagStatus) for USART_GetFlagStatus
    main.o(i.USART_puts) refers to stm32f4xx_usart.o(i.USART_SendData) for USART_SendData
    main.o(i.automation_thread) refers to rt_cmsis.o(i.osSignalWait) for osSignalWait
    main.o(i.automation_thread) refers to stm32f4xx_gpio.o(i.GPIO_WriteBit) for GPIO_WriteBit
    main.o(i.automation_thread) refers to rt_cmsis.o(i.osSignalClear) for osSignalClear
    main.o(i.automation_thread) refers to main.o(.data) for room1
    main.o(i.button) refers to stm32f4_discovery_lcd.o(i.LCD_SetFont) for LCD_SetFont
    main.o(i.button) refers to stm32f4_discovery_lcd.o(i.LCD_SetColors) for LCD_SetColors
    main.o(i.button) refers to stm32f4_discovery_lcd.o(i.LCD_DrawFullRect) for LCD_DrawFullRect
    main.o(i.button) refers to stm32f4_discovery_lcd.o(i.LCD_SetTextColor) for LCD_SetTextColor
    main.o(i.button) refers to stm32f4_discovery_lcd.o(i.LCD_DrawRect) for LCD_DrawRect
    main.o(i.button) refers to main.o(i.draw_caption) for draw_caption
    main.o(i.button) refers to stm32f4_discovery_lcd.o(.data) for Font16x24
    main.o(i.button) refers to main.o(.data) for def_theme
    main.o(i.change_theme) refers to stm32f4_discovery_lcd.o(i.LCD_SetBackColor) for LCD_SetBackColor
    main.o(i.change_theme) refers to stm32f4_discovery_lcd.o(i.LCD_DrawFullRect) for LCD_DrawFullRect
    main.o(i.change_theme) refers to main.o(i.draw_date_time_bar) for draw_date_time_bar
    main.o(i.change_theme) refers to main.o(i.draw_status_bar) for draw_status_bar
    main.o(i.change_theme) refers to main.o(.data) for def_theme
    main.o(i.check_joy) refers to rt_cmsis.o(i.osDelay) for osDelay
    main.o(i.debug_line) refers to stm32f4_discovery_lcd.o(i.LCD_SetFont) for LCD_SetFont
    main.o(i.debug_line) refers to stm32f4_discovery_lcd.o(i.LCD_GetFont) for LCD_GetFont
    main.o(i.debug_line) refers to stm32f4_discovery_lcd.o(i.LCD_DisplayStringLine) for LCD_DisplayStringLine
    main.o(i.debug_line) refers to stm32f4_discovery_lcd.o(.data) for Font16x24
    main.o(i.draw_caption) refers to stm32f4_discovery_lcd.o(i.LCD_SetFont) for LCD_SetFont
    main.o(i.draw_caption) refers to stm32f4_discovery_lcd.o(i.LCD_GetFont) for LCD_GetFont
    main.o(i.draw_caption) refers to stm32f4_discovery_lcd.o(i.LCD_DisplayChar) for LCD_DisplayChar
    main.o(i.draw_caption) refers to stm32f4_discovery_lcd.o(.data) for Font16x24
    main.o(i.draw_date_time_bar) refers to _printf_pad.o(.text) for _printf_pre_padding
    main.o(i.draw_date_time_bar) refers to _printf_percent.o(.ARM.Collect$$_printf_percent$$00000000) for _printf_percent
    main.o(i.draw_date_time_bar) refers to _printf_d.o(.ARM.Collect$$_printf_percent$$00000009) for _printf_d
    main.o(i.draw_date_time_bar) refers to _printf_s.o(.ARM.Collect$$_printf_percent$$00000014) for _printf_s
    main.o(i.draw_date_time_bar) refers to _printf_dec.o(.text) for _printf_int_dec
    main.o(i.draw_date_time_bar) refers to _printf_str.o(.text) for _printf_str
    main.o(i.draw_date_time_bar) refers to stm32f4_discovery_lcd.o(i.LCD_SetFont) for LCD_SetFont
    main.o(i.draw_date_time_bar) refers to stm32f4_discovery_lcd.o(i.LCD_SetColors) for LCD_SetColors
    main.o(i.draw_date_time_bar) refers to main.o(i.get_day) for get_day
    main.o(i.draw_date_time_bar) refers to noretval__2sprintf.o(.text) for __2sprintf
    main.o(i.draw_date_time_bar) refers to stm32f4_discovery_lcd.o(i.LCD_GetFont) for LCD_GetFont
    main.o(i.draw_date_time_bar) refers to stm32f4_discovery_lcd.o(i.LCD_DisplayStringLine) for LCD_DisplayStringLine
    main.o(i.draw_date_time_bar) refers to stm32f4_discovery_lcd.o(.data) for Font12x12
    main.o(i.draw_date_time_bar) refers to main.o(.data) for def_theme
    main.o(i.draw_date_time_bar) refers to main.o(.bss) for print_array
    main.o(i.draw_menu) refers to stm32f4_discovery_lcd.o(i.LCD_SetColors) for LCD_SetColors
    main.o(i.draw_menu) refers to stm32f4_discovery_lcd.o(i.LCD_GetFont) for LCD_GetFont
    main.o(i.draw_menu) refers to stm32f4_discovery_lcd.o(i.LCD_DisplayStringLine) for LCD_DisplayStringLine
    main.o(i.draw_menu) refers to strlen.o(.text) for strlen
    main.o(i.draw_menu) refers to main.o(i.button) for button
    main.o(i.draw_menu) refers to main.o(.data) for def_theme
    main.o(i.draw_status_bar) refers to _printf_pad.o(.text) for _printf_pre_padding
    main.o(i.draw_status_bar) refers to _printf_percent.o(.ARM.Collect$$_printf_percent$$00000000) for _printf_percent
    main.o(i.draw_status_bar) refers to _printf_d.o(.ARM.Collect$$_printf_percent$$00000009) for _printf_d
    main.o(i.draw_status_bar) refers to _printf_dec.o(.text) for _printf_int_dec
    main.o(i.draw_status_bar) refers to _printf_s.o(.ARM.Collect$$_printf_percent$$00000014) for _printf_s
    main.o(i.draw_status_bar) refers to _printf_str.o(.text) for _printf_str
    main.o(i.draw_status_bar) refers to strcpy.o(.text) for strcpy
    main.o(i.draw_status_bar) refers to noretval__2sprintf.o(.text) for __2sprintf
    main.o(i.draw_status_bar) refers to stm32f4_discovery_lcd.o(i.LCD_SetFont) for LCD_SetFont
    main.o(i.draw_status_bar) refers to stm32f4_discovery_lcd.o(i.LCD_GetFont) for LCD_GetFont
    main.o(i.draw_status_bar) refers to stm32f4_discovery_lcd.o(i.LCD_DisplayStringLine) for LCD_DisplayStringLine
    main.o(i.draw_status_bar) refers to stm32f4_discovery_lcd.o(.data) for Font8x12
    main.o(i.draw_status_bar) refers to main.o(.bss) for print_array
    main.o(i.fan_thread) refers to rt_cmsis.o(i.osSignalWait) for osSignalWait
    main.o(i.fan_thread) refers to rt_cmsis.o(i.osDelay) for osDelay
    main.o(i.fan_thread) refers to stm32f4xx_gpio.o(i.GPIO_WriteBit) for GPIO_WriteBit
    main.o(i.fan_thread) refers to rt_cmsis.o(i.osSignalClear) for osSignalClear
    main.o(i.fan_thread) refers to main.o(.data) for room1
    main.o(i.init_LCD) refers to stm32f4_discovery_lcd.o(i.STM32f4_Discovery_LCD_Init) for STM32f4_Discovery_LCD_Init
    main.o(i.init_RTC) refers to tm_stm32f4_ds1307.o(i.TM_DS1307_Init) for TM_DS1307_Init
    main.o(i.init_RTC) refers to stm32f4_discovery_lcd.o(i.LCD_GetFont) for LCD_GetFont
    main.o(i.init_RTC) refers to stm32f4_discovery_lcd.o(i.LCD_DisplayStringLine) for LCD_DisplayStringLine
    main.o(i.init_RTC) refers to tm_stm32f4_ds1307.o(i.TM_DS1307_SetSeconds) for TM_DS1307_SetSeconds
    main.o(i.init_RTC) refers to tm_stm32f4_ds1307.o(i.TM_DS1307_SetMinutes) for TM_DS1307_SetMinutes
    main.o(i.init_RTC) refers to tm_stm32f4_ds1307.o(i.TM_DS1307_SetHours) for TM_DS1307_SetHours
    main.o(i.init_RTC) refers to tm_stm32f4_ds1307.o(i.TM_DS1307_SetDay) for TM_DS1307_SetDay
    main.o(i.init_RTC) refers to tm_stm32f4_ds1307.o(i.TM_DS1307_SetDate) for TM_DS1307_SetDate
    main.o(i.init_RTC) refers to tm_stm32f4_ds1307.o(i.TM_DS1307_SetMonth) for TM_DS1307_SetMonth
    main.o(i.init_RTC) refers to tm_stm32f4_ds1307.o(i.TM_DS1307_SetYear) for TM_DS1307_SetYear
    main.o(i.init_RTC) refers to main.o(.data) for time
    main.o(i.init_USART6) refers to stm32f4xx_rcc.o(i.RCC_APB2PeriphClockCmd) for RCC_APB2PeriphClockCmd
    main.o(i.init_USART6) refers to stm32f4xx_rcc.o(i.RCC_AHB1PeriphClockCmd) for RCC_AHB1PeriphClockCmd
    main.o(i.init_USART6) refers to stm32f4xx_gpio.o(i.GPIO_Init) for GPIO_Init
    main.o(i.init_USART6) refers to stm32f4xx_gpio.o(i.GPIO_PinAFConfig) for GPIO_PinAFConfig
    main.o(i.init_USART6) refers to stm32f4xx_usart.o(i.USART_Init) for USART_Init
    main.o(i.init_USART6) refers to stm32f4xx_usart.o(i.USART_ITConfig) for USART_ITConfig
    main.o(i.init_USART6) refers to misc.o(i.NVIC_Init) for NVIC_Init
    main.o(i.init_USART6) refers to stm32f4xx_usart.o(i.USART_Cmd) for USART_Cmd
    main.o(i.init_back) refers to stm32f4xx_rcc.o(i.RCC_AHB1PeriphClockCmd) for RCC_AHB1PeriphClockCmd
    main.o(i.init_back) refers to stm32f4xx_rcc.o(i.RCC_APB2PeriphClockCmd) for RCC_APB2PeriphClockCmd
    main.o(i.init_back) refers to stm32f4xx_gpio.o(i.GPIO_Init) for GPIO_Init
    main.o(i.init_back) refers to stm32f4xx_syscfg.o(i.SYSCFG_EXTILineConfig) for SYSCFG_EXTILineConfig
    main.o(i.init_back) refers to stm32f4xx_exti.o(i.EXTI_Init) for EXTI_Init
    main.o(i.init_back) refers to misc.o(i.NVIC_Init) for NVIC_Init
    main.o(i.init_buzzer) refers to stm32f4xx_gpio.o(i.GPIO_StructInit) for GPIO_StructInit
    main.o(i.init_buzzer) refers to stm32f4xx_gpio.o(i.GPIO_Init) for GPIO_Init
    main.o(i.init_buzzer) refers to stm32f4xx_gpio.o(i.GPIO_WriteBit) for GPIO_WriteBit
    main.o(i.init_fan) refers to stm32f4xx_rcc.o(i.RCC_AHB1PeriphClockCmd) for RCC_AHB1PeriphClockCmd
    main.o(i.init_fan) refers to stm32f4xx_rcc.o(i.RCC_APB2PeriphClockCmd) for RCC_APB2PeriphClockCmd
    main.o(i.init_fan) refers to stm32f4xx_gpio.o(i.GPIO_Init) for GPIO_Init
    main.o(i.init_fan) refers to stm32f4xx_syscfg.o(i.SYSCFG_EXTILineConfig) for SYSCFG_EXTILineConfig
    main.o(i.init_fan) refers to stm32f4xx_exti.o(i.EXTI_Init) for EXTI_Init
    main.o(i.init_fan) refers to misc.o(i.NVIC_Init) for NVIC_Init
    main.o(i.init_fan) refers to stm32f4xx_gpio.o(i.GPIO_StructInit) for GPIO_StructInit
    main.o(i.init_joystick) refers to adc.o(i.adc_init) for adc_init
    main.o(i.init_joystick) refers to stm32f4xx_rcc.o(i.RCC_AHB1PeriphClockCmd) for RCC_AHB1PeriphClockCmd
    main.o(i.init_joystick) refers to stm32f4xx_gpio.o(i.GPIO_StructInit) for GPIO_StructInit
    main.o(i.init_joystick) refers to stm32f4xx_gpio.o(i.GPIO_Init) for GPIO_Init
    main.o(i.init_joystick) refers to main.o(.constdata) for joy_x
    main.o(i.init_lights) refers to stm32f4xx_rcc.o(i.RCC_AHB1PeriphClockCmd) for RCC_AHB1PeriphClockCmd
    main.o(i.init_lights) refers to stm32f4xx_gpio.o(i.GPIO_StructInit) for GPIO_StructInit
    main.o(i.init_lights) refers to stm32f4xx_gpio.o(i.GPIO_Init) for GPIO_Init
    main.o(i.init_lights) refers to stm32f4xx_gpio.o(i.GPIO_WriteBit) for GPIO_WriteBit
    main.o(i.init_pir) refers to stm32f4xx_gpio.o(i.GPIO_StructInit) for GPIO_StructInit
    main.o(i.init_pir) refers to stm32f4xx_gpio.o(i.GPIO_Init) for GPIO_Init
    main.o(i.init_room_struct) refers to main.o(.data) for room1
    main.o(i.lighting_menu) refers to rt_memcpy_w.o(.text) for __aeabi_memcpy4
    main.o(i.lighting_menu) refers to stm32f4_discovery_lcd.o(i.LCD_Clear) for LCD_Clear
    main.o(i.lighting_menu) refers to rt_cmsis.o(i.osSignalSet) for osSignalSet
    main.o(i.lighting_menu) refers to main.o(i.draw_menu) for draw_menu
    main.o(i.lighting_menu) refers to main.o(i.read_joy) for read_joy
    main.o(i.lighting_menu) refers to main.o(i.check_joy) for check_joy
    main.o(i.lighting_menu) refers to main.o(i.lighting_room_submenu) for lighting_room_submenu
    main.o(i.lighting_menu) refers to main.o(.constdata) for .constdata
    main.o(i.lighting_menu) refers to main.o(.data) for def_theme
    main.o(i.lighting_room_submenu) refers to _printf_percent.o(.ARM.Collect$$_printf_percent$$00000000) for _printf_percent
    main.o(i.lighting_room_submenu) refers to _printf_d.o(.ARM.Collect$$_printf_percent$$00000009) for _printf_d
    main.o(i.lighting_room_submenu) refers to _printf_dec.o(.text) for _printf_int_dec
    main.o(i.lighting_room_submenu) refers to _printf_pad.o(.text) for _printf_pre_padding
    main.o(i.lighting_room_submenu) refers to noretval__2sprintf.o(.text) for __2sprintf
    main.o(i.lighting_room_submenu) refers to stm32f4_discovery_lcd.o(i.LCD_Clear) for LCD_Clear
    main.o(i.lighting_room_submenu) refers to rt_cmsis.o(i.osSignalSet) for osSignalSet
    main.o(i.lighting_room_submenu) refers to main.o(i.draw_menu) for draw_menu
    main.o(i.lighting_room_submenu) refers to main.o(i.read_joy) for read_joy
    main.o(i.lighting_room_submenu) refers to main.o(i.check_joy) for check_joy
    main.o(i.lighting_room_submenu) refers to main.o(.constdata) for .constdata
    main.o(i.lighting_room_submenu) refers to main.o(.data) for room1
    main.o(i.main) refers to rt_cmsis.o(i.osKernelInitialize) for osKernelInitialize
    main.o(i.main) refers to main.o(i.init_LCD) for init_LCD
    main.o(i.main) refers to main.o(i.splash_screen) for splash_screen
    main.o(i.main) refers to adc.o(i.adc_init) for adc_init
    main.o(i.main) refers to main.o(i.init_joystick) for init_joystick
    main.o(i.main) refers to main.o(i.init_RTC) for init_RTC
    main.o(i.main) refers to main.o(i.init_lights) for init_lights
    main.o(i.main) refers to timer.o(i.Init_Timers) for Init_Timers
    main.o(i.main) refers to main.o(i.init_back) for init_back
    main.o(i.main) refers to main.o(i.init_room_struct) for init_room_struct
    main.o(i.main) refers to main.o(i.init_USART6) for init_USART6
    main.o(i.main) refers to main.o(i.init_fan) for init_fan
    main.o(i.main) refers to main.o(i.init_buzzer) for init_buzzer
    main.o(i.main) refers to main.o(i.init_pir) for init_pir
    main.o(i.main) refers to stm32f4_discovery_lcd.o(i.LCD_Clear) for LCD_Clear
    main.o(i.main) refers to rt_cmsis.o(i.osThreadCreate) for osThreadCreate
    main.o(i.main) refers to rt_cmsis.o(i.osSignalSet) for osSignalSet
    main.o(i.main) refers to rt_cmsis.o(i.osKernelStart) for osKernelStart
    main.o(i.main) refers to main.o(.constdata) for ldr
    main.o(i.main) refers to main.o(.data) for def_theme
    main.o(i.main_menu) refers to rt_memcpy_w.o(.text) for __aeabi_memcpy4
    main.o(i.main_menu) refers to main.o(i.read_joy) for read_joy
    main.o(i.main_menu) refers to main.o(i.check_joy) for check_joy
    main.o(i.main_menu) refers to stm32f4_discovery_lcd.o(i.LCD_SetBackColor) for LCD_SetBackColor
    main.o(i.main_menu) refers to stm32f4_discovery_lcd.o(i.LCD_DrawFullRect) for LCD_DrawFullRect
    main.o(i.main_menu) refers to main.o(i.draw_menu) for draw_menu
    main.o(i.main_menu) refers to main.o(i.lighting_menu) for lighting_menu
    main.o(i.main_menu) refers to main.o(i.timer_menu) for timer_menu
    main.o(i.main_menu) refers to main.o(i.settings_menu) for settings_menu
    main.o(i.main_menu) refers to main.o(.constdata) for .constdata
    main.o(i.main_menu) refers to main.o(.data) for def_theme
    main.o(i.main_thread) refers to main.o(i.main_menu) for main_menu
    main.o(i.pir_thread) refers to rt_cmsis.o(i.osSignalWait) for osSignalWait
    main.o(i.pir_thread) refers to main.o(i.debug_line) for debug_line
    main.o(i.pir_thread) refers to rt_cmsis.o(i.osDelay) for osDelay
    main.o(i.pir_thread) refers to strcpy.o(.text) for strcpy
    main.o(i.pir_thread) refers to rt_cmsis.o(i.osSignalSet) for osSignalSet
    main.o(i.pir_thread) refers to rt_cmsis.o(i.osSignalClear) for osSignalClear
    main.o(i.pir_thread) refers to main.o(.data) for pir_value
    main.o(i.polling_thread) refers to stm32f4xx_gpio.o(i.GPIO_ReadInputDataBit) for GPIO_ReadInputDataBit
    main.o(i.polling_thread) refers to adc.o(i.adc_read) for adc_read
    main.o(i.polling_thread) refers to rt_cmsis.o(i.osSignalSet) for osSignalSet
    main.o(i.polling_thread) refers to main.o(i.room_struct_apply) for room_struct_apply
    main.o(i.polling_thread) refers to stm32f4xx_gpio.o(i.GPIO_WriteBit) for GPIO_WriteBit
    main.o(i.polling_thread) refers to main.o(.data) for k
    main.o(i.polling_thread) refers to main.o(.constdata) for joy_x
    main.o(i.polling_thread) refers to timer.o(.data) for timer1
    main.o(i.read_joy) refers to main.o(.data) for y
    main.o(i.room_struct_apply) refers to main.o(.data) for room1
    main.o(i.settings_menu) refers to stm32f4_discovery_lcd.o(i.LCD_Clear) for LCD_Clear
    main.o(i.settings_menu) refers to rt_cmsis.o(i.osSignalSet) for osSignalSet
    main.o(i.settings_menu) refers to main.o(i.draw_menu) for draw_menu
    main.o(i.settings_menu) refers to main.o(i.read_joy) for read_joy
    main.o(i.settings_menu) refers to main.o(i.check_joy) for check_joy
    main.o(i.settings_menu) refers to main.o(i.settings_theme_submenu) for settings_theme_submenu
    main.o(i.settings_menu) refers to main.o(.constdata) for .constdata
    main.o(i.settings_menu) refers to main.o(.data) for def_theme
    main.o(i.settings_theme_submenu) refers to rt_memcpy_w.o(.text) for __aeabi_memcpy4
    main.o(i.settings_theme_submenu) refers to main.o(i.change_theme) for change_theme
    main.o(i.settings_theme_submenu) refers to stm32f4_discovery_lcd.o(i.LCD_Clear) for LCD_Clear
    main.o(i.settings_theme_submenu) refers to rt_cmsis.o(i.osSignalSet) for osSignalSet
    main.o(i.settings_theme_submenu) refers to main.o(i.draw_menu) for draw_menu
    main.o(i.settings_theme_submenu) refers to main.o(i.read_joy) for read_joy
    main.o(i.settings_theme_submenu) refers to main.o(i.check_joy) for check_joy
    main.o(i.settings_theme_submenu) refers to main.o(.data) for def_theme
    main.o(i.settings_theme_submenu) refers to main.o(.constdata) for .constdata
    main.o(i.splash_screen) refers to stm32f4_discovery_lcd.o(i.LCD_Clear) for LCD_Clear
    main.o(i.splash_screen) refers to stm32f4_discovery_lcd.o(i.LCD_SetColors) for LCD_SetColors
    main.o(i.splash_screen) refers to stm32f4_discovery_lcd.o(i.LCD_GetFont) for LCD_GetFont
    main.o(i.splash_screen) refers to stm32f4_discovery_lcd.o(i.LCD_DisplayStringLine) for LCD_DisplayStringLine
    main.o(i.splash_screen) refers to stm32f4_discovery_lcd.o(i.LCD_DrawCircle) for LCD_DrawCircle
    main.o(i.timer_menu) refers to _printf_pad.o(.text) for _printf_pre_padding
    main.o(i.timer_menu) refers to _printf_percent.o(.ARM.Collect$$_printf_percent$$00000000) for _printf_percent
    main.o(i.timer_menu) refers to _printf_d.o(.ARM.Collect$$_printf_percent$$00000009) for _printf_d
    main.o(i.timer_menu) refers to _printf_dec.o(.text) for _printf_int_dec
    main.o(i.timer_menu) refers to stm32f4_discovery_lcd.o(i.LCD_Clear) for LCD_Clear
    main.o(i.timer_menu) refers to stm32f4_discovery_lcd.o(i.LCD_SetColors) for LCD_SetColors
    main.o(i.timer_menu) refers to stm32f4_discovery_lcd.o(i.LCD_GetFont) for LCD_GetFont
    main.o(i.timer_menu) refers to stm32f4_discovery_lcd.o(i.LCD_DisplayStringLine) for LCD_DisplayStringLine
    main.o(i.timer_menu) refers to rt_cmsis.o(i.osSignalSet) for osSignalSet
    main.o(i.timer_menu) refers to main.o(i.read_joy) for read_joy
    main.o(i.timer_menu) refers to rt_cmsis.o(i.osDelay) for osDelay
    main.o(i.timer_menu) refers to stm32f4_discovery_lcd.o(i.LCD_SetTextColor) for LCD_SetTextColor
    main.o(i.timer_menu) refers to stm32f4_discovery_lcd.o(i.LCD_SetBackColor) for LCD_SetBackColor
    main.o(i.timer_menu) refers to stm32f4_discovery_lcd.o(i.LCD_DisplayChar) for LCD_DisplayChar
    main.o(i.timer_menu) refers to noretval__2sprintf.o(.text) for __2sprintf
    main.o(i.timer_menu) refers to main.o(.data) for def_theme
    main.o(i.update_bars) refers to rt_cmsis.o(i.osSignalWait) for osSignalWait
    main.o(i.update_bars) refers to stm32f4_discovery_lcd.o(i.LCD_GetColors) for LCD_GetColors
    main.o(i.update_bars) refers to tm_stm32f4_ds1307.o(i.TM_DS1307_GetSeconds) for TM_DS1307_GetSeconds
    main.o(i.update_bars) refers to tm_stm32f4_ds1307.o(i.TM_DS1307_GetMinutes) for TM_DS1307_GetMinutes
    main.o(i.update_bars) refers to tm_stm32f4_ds1307.o(i.TM_DS1307_GetHours) for TM_DS1307_GetHours
    main.o(i.update_bars) refers to tm_stm32f4_ds1307.o(i.TM_DS1307_GetDay) for TM_DS1307_GetDay
    main.o(i.update_bars) refers to tm_stm32f4_ds1307.o(i.TM_DS1307_GetDate) for TM_DS1307_GetDate
    main.o(i.update_bars) refers to tm_stm32f4_ds1307.o(i.TM_DS1307_GetMonth) for TM_DS1307_GetMonth
    main.o(i.update_bars) refers to tm_stm32f4_ds1307.o(i.TM_DS1307_GetYear) for TM_DS1307_GetYear
    main.o(i.update_bars) refers to main.o(i.draw_date_time_bar) for draw_date_time_bar
    main.o(i.update_bars) refers to main.o(i.draw_status_bar) for draw_status_bar
    main.o(i.update_bars) refers to stm32f4_discovery_lcd.o(i.LCD_SetColors) for LCD_SetColors
    main.o(i.update_bars) refers to rt_cmsis.o(i.osSignalClear) for osSignalClear
    main.o(i.update_bars) refers to timer.o(.data) for timer2
    main.o(i.update_bars) refers to main.o(.data) for time
    main.o(.constdata) refers to main.o(.conststring) for .conststring
    main.o(.constdata) refers to main.o(i.main_thread) for main_thread
    main.o(.constdata) refers to main.o(i.update_bars) for update_bars
    main.o(.constdata) refers to main.o(i.automation_thread) for automation_thread
    main.o(.constdata) refers to main.o(i.polling_thread) for polling_thread
    main.o(.constdata) refers to main.o(i.fan_thread) for fan_thread
    main.o(.constdata) refers to main.o(i.pir_thread) for pir_thread
    timer.o(i.Init_Timers) refers to rt_cmsis.o(i.osTimerCreate) for osTimerCreate
    timer.o(i.Init_Timers) refers to rt_cmsis.o(i.osTimerStart) for osTimerStart
    timer.o(i.Init_Timers) refers to timer.o(.data) for exec1
    timer.o(i.Init_Timers) refers to timer.o(.constdata) for os_timer_def_Timer1
    timer.o(i.Timer1_Callback) refers to timer.o(.data) for timer1
    timer.o(i.Timer2_Callback) refers to rt_cmsis.o(i.osSignalSet) for osSignalSet
    timer.o(i.Timer2_Callback) refers to main.o(.data) for thread_id
    timer.o(i.Timer2_Callback) refers to timer.o(.data) for timer2
    timer.o(.constdata) refers to timer.o(i.Timer1_Callback) for Timer1_Callback
    timer.o(.constdata) refers to timer.o(.bss) for os_timer_cb_Timer1
    timer.o(.constdata) refers to timer.o(i.Timer2_Callback) for Timer2_Callback
    stm32f4xx_adc.o(i.ADC_DeInit) refers to stm32f4xx_rcc.o(i.RCC_APB2PeriphResetCmd) for RCC_APB2PeriphResetCmd
    stm32f4xx_gpio.o(i.GPIO_DeInit) refers to stm32f4xx_rcc.o(i.RCC_AHB1PeriphResetCmd) for RCC_AHB1PeriphResetCmd
    stm32f4xx_i2c.o(i.I2C_DeInit) refers to stm32f4xx_rcc.o(i.RCC_APB1PeriphResetCmd) for RCC_APB1PeriphResetCmd
    stm32f4xx_i2c.o(i.I2C_Init) refers to stm32f4xx_rcc.o(i.RCC_GetClocksFreq) for RCC_GetClocksFreq
    stm32f4xx_rcc.o(i.RCC_GetClocksFreq) refers to stm32f4xx_rcc.o(.data) for APBAHBPrescTable
    stm32f4xx_rcc.o(i.RCC_WaitForHSEStartUp) refers to stm32f4xx_rcc.o(i.RCC_GetFlagStatus) for RCC_GetFlagStatus
    stm32f4xx_syscfg.o(i.SYSCFG_DeInit) refers to stm32f4xx_rcc.o(i.RCC_APB2PeriphResetCmd) for RCC_APB2PeriphResetCmd
    stm32f4xx_usart.o(i.USART_DeInit) refers to stm32f4xx_rcc.o(i.RCC_APB2PeriphResetCmd) for RCC_APB2PeriphResetCmd
    stm32f4xx_usart.o(i.USART_DeInit) refers to stm32f4xx_rcc.o(i.RCC_APB1PeriphResetCmd) for RCC_APB1PeriphResetCmd
    stm32f4xx_usart.o(i.USART_Init) refers to stm32f4xx_rcc.o(i.RCC_GetClocksFreq) for RCC_GetClocksFreq
    stm32f4_discovery_lcd.o(i.LCD_Clear) refers to stm32f4_discovery_lcd.o(i.LCD_SetCursor) for LCD_SetCursor
    stm32f4_discovery_lcd.o(i.LCD_Clear) refers to stm32f4_discovery_lcd.o(i.LCD_WriteRAM_Prepare) for LCD_WriteRAM_Prepare
    stm32f4_discovery_lcd.o(i.LCD_ClearLine) refers to stm32f4_discovery_lcd.o(i.LCD_DisplayChar) for LCD_DisplayChar
    stm32f4_discovery_lcd.o(i.LCD_ClearLine) refers to stm32f4_discovery_lcd.o(.data) for LCD_Currentfonts
    stm32f4_discovery_lcd.o(i.LCD_ClosedPolyLine) refers to stm32f4_discovery_lcd.o(i.LCD_PolyLine) for LCD_PolyLine
    stm32f4_discovery_lcd.o(i.LCD_ClosedPolyLine) refers to stm32f4_discovery_lcd.o(i.LCD_DrawUniLine) for LCD_DrawUniLine
    stm32f4_discovery_lcd.o(i.LCD_ClosedPolyLineRelative) refers to stm32f4_discovery_lcd.o(i.LCD_PolyLineRelativeClosed) for LCD_PolyLineRelativeClosed
    stm32f4_discovery_lcd.o(i.LCD_CtrlLinesConfig) refers to stm32f4xx_rcc.o(i.RCC_AHB1PeriphClockCmd) for RCC_AHB1PeriphClockCmd
    stm32f4_discovery_lcd.o(i.LCD_CtrlLinesConfig) refers to stm32f4xx_gpio.o(i.GPIO_Init) for GPIO_Init
    stm32f4_discovery_lcd.o(i.LCD_CtrlLinesConfig) refers to stm32f4xx_gpio.o(i.GPIO_PinAFConfig) for GPIO_PinAFConfig
    stm32f4_discovery_lcd.o(i.LCD_CtrlLinesConfig) refers to stm32f4xx_gpio.o(i.GPIO_SetBits) for GPIO_SetBits
    stm32f4_discovery_lcd.o(i.LCD_DeInit) refers to stm32f4_discovery_lcd.o(i.LCD_DisplayOff) for LCD_DisplayOff
    stm32f4_discovery_lcd.o(i.LCD_DeInit) refers to stm32f4xx_fsmc.o(i.FSMC_NORSRAMCmd) for FSMC_NORSRAMCmd
    stm32f4_discovery_lcd.o(i.LCD_DeInit) refers to stm32f4xx_fsmc.o(i.FSMC_NORSRAMDeInit) for FSMC_NORSRAMDeInit
    stm32f4_discovery_lcd.o(i.LCD_DeInit) refers to stm32f4xx_gpio.o(i.GPIO_Init) for GPIO_Init
    stm32f4_discovery_lcd.o(i.LCD_DeInit) refers to stm32f4xx_gpio.o(i.GPIO_PinAFConfig) for GPIO_PinAFConfig
    stm32f4_discovery_lcd.o(i.LCD_DisplayChar) refers to stm32f4_discovery_lcd.o(i.LCD_DrawChar) for LCD_DrawChar
    stm32f4_discovery_lcd.o(i.LCD_DisplayChar) refers to stm32f4_discovery_lcd.o(.data) for LCD_Currentfonts
    stm32f4_discovery_lcd.o(i.LCD_DisplayStringLine) refers to stm32f4_discovery_lcd.o(i.LCD_DisplayChar) for LCD_DisplayChar
    stm32f4_discovery_lcd.o(i.LCD_DisplayStringLine) refers to stm32f4_discovery_lcd.o(.data) for LCD_Currentfonts
    stm32f4_discovery_lcd.o(i.LCD_DrawChar) refers to stm32f4_discovery_lcd.o(i.LCD_SetCursor) for LCD_SetCursor
    stm32f4_discovery_lcd.o(i.LCD_DrawChar) refers to stm32f4_discovery_lcd.o(i.LCD_WriteRAM_Prepare) for LCD_WriteRAM_Prepare
    stm32f4_discovery_lcd.o(i.LCD_DrawChar) refers to stm32f4_discovery_lcd.o(i.LCD_WriteRAM) for LCD_WriteRAM
    stm32f4_discovery_lcd.o(i.LCD_DrawChar) refers to stm32f4_discovery_lcd.o(.data) for LCD_Currentfonts
    stm32f4_discovery_lcd.o(i.LCD_DrawCircle) refers to stm32f4_discovery_lcd.o(i.LCD_SetCursor) for LCD_SetCursor
    stm32f4_discovery_lcd.o(i.LCD_DrawCircle) refers to stm32f4_discovery_lcd.o(i.LCD_WriteRAM_Prepare) for LCD_WriteRAM_Prepare
    stm32f4_discovery_lcd.o(i.LCD_DrawCircle) refers to stm32f4_discovery_lcd.o(i.LCD_WriteRAM) for LCD_WriteRAM
    stm32f4_discovery_lcd.o(i.LCD_DrawCircle) refers to stm32f4_discovery_lcd.o(.data) for TextColor
    stm32f4_discovery_lcd.o(i.LCD_DrawFullCircle) refers to stm32f4_discovery_lcd.o(i.LCD_SetTextColor) for LCD_SetTextColor
    stm32f4_discovery_lcd.o(i.LCD_DrawFullCircle) refers to stm32f4_discovery_lcd.o(i.LCD_DrawLine) for LCD_DrawLine
    stm32f4_discovery_lcd.o(i.LCD_DrawFullCircle) refers to stm32f4_discovery_lcd.o(i.LCD_DrawCircle) for LCD_DrawCircle
    stm32f4_discovery_lcd.o(i.LCD_DrawFullCircle) refers to stm32f4_discovery_lcd.o(.data) for BackColor
    stm32f4_discovery_lcd.o(i.LCD_DrawFullRect) refers to stm32f4_discovery_lcd.o(i.LCD_SetTextColor) for LCD_SetTextColor
    stm32f4_discovery_lcd.o(i.LCD_DrawFullRect) refers to stm32f4_discovery_lcd.o(i.LCD_DrawLine) for LCD_DrawLine
    stm32f4_discovery_lcd.o(i.LCD_DrawFullRect) refers to stm32f4_discovery_lcd.o(.data) for TextColor
    stm32f4_discovery_lcd.o(i.LCD_DrawLine) refers to stm32f4_discovery_lcd.o(i.LCD_SetCursor) for LCD_SetCursor
    stm32f4_discovery_lcd.o(i.LCD_DrawLine) refers to stm32f4_discovery_lcd.o(i.LCD_WriteRAM_Prepare) for LCD_WriteRAM_Prepare
    stm32f4_discovery_lcd.o(i.LCD_DrawLine) refers to stm32f4_discovery_lcd.o(i.LCD_WriteRAM) for LCD_WriteRAM
    stm32f4_discovery_lcd.o(i.LCD_DrawLine) refers to stm32f4_discovery_lcd.o(.data) for TextColor
    stm32f4_discovery_lcd.o(i.LCD_DrawMonoPict) refers to stm32f4_discovery_lcd.o(i.LCD_SetCursor) for LCD_SetCursor
    stm32f4_discovery_lcd.o(i.LCD_DrawMonoPict) refers to stm32f4_discovery_lcd.o(i.LCD_WriteRAM_Prepare) for LCD_WriteRAM_Prepare
    stm32f4_discovery_lcd.o(i.LCD_DrawMonoPict) refers to stm32f4_discovery_lcd.o(i.LCD_WriteRAM) for LCD_WriteRAM
    stm32f4_discovery_lcd.o(i.LCD_DrawMonoPict) refers to stm32f4_discovery_lcd.o(.data) for BackColor
    stm32f4_discovery_lcd.o(i.LCD_DrawRect) refers to stm32f4_discovery_lcd.o(i.LCD_DrawLine) for LCD_DrawLine
    stm32f4_discovery_lcd.o(i.LCD_DrawUniLine) refers to stm32f4_discovery_lcd.o(i.PutPixel) for PutPixel
    stm32f4_discovery_lcd.o(i.LCD_FSMCConfig) refers to stm32f4xx_rcc.o(i.RCC_AHB3PeriphClockCmd) for RCC_AHB3PeriphClockCmd
    stm32f4_discovery_lcd.o(i.LCD_FSMCConfig) refers to stm32f4xx_fsmc.o(i.FSMC_NORSRAMInit) for FSMC_NORSRAMInit
    stm32f4_discovery_lcd.o(i.LCD_FSMCConfig) refers to stm32f4xx_fsmc.o(i.FSMC_NORSRAMCmd) for FSMC_NORSRAMCmd
    stm32f4_discovery_lcd.o(i.LCD_FillPolyLine) refers to stm32f4_discovery_lcd.o(i.LCD_SetTextColor) for LCD_SetTextColor
    stm32f4_discovery_lcd.o(i.LCD_FillPolyLine) refers to dflt_clz.o(x$fpl$dfltu) for __aeabi_ui2d
    stm32f4_discovery_lcd.o(i.LCD_FillPolyLine) refers to dflt_clz.o(x$fpl$dflt) for __aeabi_i2d
    stm32f4_discovery_lcd.o(i.LCD_FillPolyLine) refers to dleqf.o(x$fpl$dleqf) for __aeabi_cdcmple
    stm32f4_discovery_lcd.o(i.LCD_FillPolyLine) refers to drleqf.o(x$fpl$drleqf) for __aeabi_cdrcmple
    stm32f4_discovery_lcd.o(i.LCD_FillPolyLine) refers to stm32f4_discovery_lcd.o(i.LCD_DrawLine) for LCD_DrawLine
    stm32f4_discovery_lcd.o(i.LCD_FillPolyLine) refers to stm32f4_discovery_lcd.o(i.PutPixel) for PutPixel
    stm32f4_discovery_lcd.o(i.LCD_FillPolyLine) refers to stm32f4_discovery_lcd.o(.data) for BackColor
    stm32f4_discovery_lcd.o(i.LCD_GetColors) refers to stm32f4_discovery_lcd.o(.data) for TextColor
    stm32f4_discovery_lcd.o(i.LCD_GetFont) refers to stm32f4_discovery_lcd.o(.data) for LCD_Currentfonts
    stm32f4_discovery_lcd.o(i.LCD_PolyLine) refers to stm32f4_discovery_lcd.o(i.LCD_DrawUniLine) for LCD_DrawUniLine
    stm32f4_discovery_lcd.o(i.LCD_PolyLineRelative) refers to stm32f4_discovery_lcd.o(i.LCD_PolyLineRelativeClosed) for LCD_PolyLineRelativeClosed
    stm32f4_discovery_lcd.o(i.LCD_PolyLineRelativeClosed) refers to stm32f4_discovery_lcd.o(i.LCD_DrawUniLine) for LCD_DrawUniLine
    stm32f4_discovery_lcd.o(i.LCD_RGB_Test) refers to stm32f4_discovery_lcd.o(i.LCD_SetCursor) for LCD_SetCursor
    stm32f4_discovery_lcd.o(i.LCD_RGB_Test) refers to stm32f4_discovery_lcd.o(i.LCD_WriteRAM_Prepare) for LCD_WriteRAM_Prepare
    stm32f4_discovery_lcd.o(i.LCD_SetBackColor) refers to stm32f4_discovery_lcd.o(.data) for BackColor
    stm32f4_discovery_lcd.o(i.LCD_SetColors) refers to stm32f4_discovery_lcd.o(.data) for TextColor
    stm32f4_discovery_lcd.o(i.LCD_SetCursor) refers to stm32f4_discovery_lcd.o(i.LCD_WriteReg) for LCD_WriteReg
    stm32f4_discovery_lcd.o(i.LCD_SetDisplayWindow) refers to stm32f4_discovery_lcd.o(i.LCD_WriteReg) for LCD_WriteReg
    stm32f4_discovery_lcd.o(i.LCD_SetDisplayWindow) refers to stm32f4_discovery_lcd.o(i.LCD_SetCursor) for LCD_SetCursor
    stm32f4_discovery_lcd.o(i.LCD_SetFont) refers to stm32f4_discovery_lcd.o(.data) for LCD_Currentfonts
    stm32f4_discovery_lcd.o(i.LCD_SetTextColor) refers to stm32f4_discovery_lcd.o(.data) for TextColor
    stm32f4_discovery_lcd.o(i.PutPixel) refers to stm32f4_discovery_lcd.o(i.LCD_DrawLine) for LCD_DrawLine
    stm32f4_discovery_lcd.o(i.STM32f4_Discovery_LCD_Init) refers to stm32f4_discovery_lcd.o(i.LCD_CtrlLinesConfig) for LCD_CtrlLinesConfig
    stm32f4_discovery_lcd.o(i.STM32f4_Discovery_LCD_Init) refers to stm32f4_discovery_lcd.o(i.LCD_FSMCConfig) for LCD_FSMCConfig
    stm32f4_discovery_lcd.o(i.STM32f4_Discovery_LCD_Init) refers to stm32f4_discovery_lcd.o(i.delay) for delay
    stm32f4_discovery_lcd.o(i.STM32f4_Discovery_LCD_Init) refers to stm32f4xx_gpio.o(i.GPIO_ResetBits) for GPIO_ResetBits
    stm32f4_discovery_lcd.o(i.STM32f4_Discovery_LCD_Init) refers to stm32f4xx_gpio.o(i.GPIO_SetBits) for GPIO_SetBits
    stm32f4_discovery_lcd.o(i.STM32f4_Discovery_LCD_Init) refers to stm32f4_discovery_lcd.o(i.LCD_WriteReg) for LCD_WriteReg
    stm32f4_discovery_lcd.o(i.STM32f4_Discovery_LCD_Init) refers to stm32f4_discovery_lcd.o(i.LCD_WriteRAM) for LCD_WriteRAM
    stm32f4_discovery_lcd.o(i.STM32f4_Discovery_LCD_Init) refers to stm32f4_discovery_lcd.o(i.LCD_SetFont) for LCD_SetFont
    stm32f4_discovery_lcd.o(i.STM32f4_Discovery_LCD_Init) refers to stm32f4_discovery_lcd.o(.data) for Font16x24
    stm32f4_discovery_lcd.o(.data) refers to stm32f4_discovery_lcd.o(.constdata) for ASCII16x24_Table
    adc.o(i.adc_init) refers to strcmpv7m.o(.text) for strcmp
    adc.o(i.adc_init) refers to adc.o(i.adc_setup) for adc_setup
    adc.o(i.adc_init) refers to adc.o(.constdata) for stm32f4_adc_pin_configuration
    adc.o(i.adc_read) refers to strcmpv7m.o(.text) for strcmp
    adc.o(i.adc_read) refers to stm32f4xx_adc.o(i.ADC_RegularChannelConfig) for ADC_RegularChannelConfig
    adc.o(i.adc_read) refers to stm32f4xx_adc.o(i.ADC_SoftwareStartConv) for ADC_SoftwareStartConv
    adc.o(i.adc_read) refers to stm32f4xx_adc.o(i.ADC_GetFlagStatus) for ADC_GetFlagStatus
    adc.o(i.adc_read) refers to stm32f4xx_adc.o(i.ADC_GetConversionValue) for ADC_GetConversionValue
    adc.o(i.adc_read) refers to adc.o(.constdata) for stm32f4_adc_pin_configuration
    adc.o(i.adc_setup) refers to adc.o(i.gpio_setup) for gpio_setup
    adc.o(i.adc_setup) refers to stm32f4xx_adc.o(i.ADC_CommonStructInit) for ADC_CommonStructInit
    adc.o(i.adc_setup) refers to stm32f4xx_adc.o(i.ADC_StructInit) for ADC_StructInit
    adc.o(i.adc_setup) refers to stm32f4xx_rcc.o(i.RCC_APB2PeriphClockCmd) for RCC_APB2PeriphClockCmd
    adc.o(i.adc_setup) refers to stm32f4xx_adc.o(i.ADC_CommonInit) for ADC_CommonInit
    adc.o(i.adc_setup) refers to stm32f4xx_adc.o(i.ADC_Init) for ADC_Init
    adc.o(i.adc_setup) refers to stm32f4xx_adc.o(i.ADC_Cmd) for ADC_Cmd
    adc.o(i.gpio_setup) refers to stm32f4xx_rcc.o(i.RCC_AHB1PeriphClockCmd) for RCC_AHB1PeriphClockCmd
    adc.o(i.gpio_setup) refers to stm32f4xx_gpio.o(i.GPIO_StructInit) for GPIO_StructInit
    adc.o(i.gpio_setup) refers to stm32f4xx_gpio.o(i.GPIO_Init) for GPIO_Init
    adc.o(.constdata) refers to adc.o(.conststring) for .conststring
    tm_stm32f4_ds1307.o(i.TM_DS1307_DisableOutputPin) refers to tm_stm32f4_ds1307.o(i.TM_DS1307_EnableOutputPin) for TM_DS1307_EnableOutputPin
    tm_stm32f4_ds1307.o(i.TM_DS1307_EnableOutputPin) refers to tm_stm32f4_i2c.o(i.TM_I2C_Write) for TM_I2C_Write
    tm_stm32f4_ds1307.o(i.TM_DS1307_GetDate) refers to tm_stm32f4_i2c.o(i.TM_I2C_Read) for TM_I2C_Read
    tm_stm32f4_ds1307.o(i.TM_DS1307_GetDate) refers to tm_stm32f4_ds1307.o(i.TM_DS1307_Bcd2Bin) for TM_DS1307_Bcd2Bin
    tm_stm32f4_ds1307.o(i.TM_DS1307_GetDateTime) refers to tm_stm32f4_i2c.o(i.TM_I2C_ReadMulti) for TM_I2C_ReadMulti
    tm_stm32f4_ds1307.o(i.TM_DS1307_GetDateTime) refers to tm_stm32f4_ds1307.o(i.TM_DS1307_Bcd2Bin) for TM_DS1307_Bcd2Bin
    tm_stm32f4_ds1307.o(i.TM_DS1307_GetDay) refers to tm_stm32f4_i2c.o(i.TM_I2C_Read) for TM_I2C_Read
    tm_stm32f4_ds1307.o(i.TM_DS1307_GetDay) refers to tm_stm32f4_ds1307.o(i.TM_DS1307_Bcd2Bin) for TM_DS1307_Bcd2Bin
    tm_stm32f4_ds1307.o(i.TM_DS1307_GetHours) refers to tm_stm32f4_i2c.o(i.TM_I2C_Read) for TM_I2C_Read
    tm_stm32f4_ds1307.o(i.TM_DS1307_GetHours) refers to tm_stm32f4_ds1307.o(i.TM_DS1307_Bcd2Bin) for TM_DS1307_Bcd2Bin
    tm_stm32f4_ds1307.o(i.TM_DS1307_GetMinutes) refers to tm_stm32f4_i2c.o(i.TM_I2C_Read) for TM_I2C_Read
    tm_stm32f4_ds1307.o(i.TM_DS1307_GetMinutes) refers to tm_stm32f4_ds1307.o(i.TM_DS1307_Bcd2Bin) for TM_DS1307_Bcd2Bin
    tm_stm32f4_ds1307.o(i.TM_DS1307_GetMonth) refers to tm_stm32f4_i2c.o(i.TM_I2C_Read) for TM_I2C_Read
    tm_stm32f4_ds1307.o(i.TM_DS1307_GetMonth) refers to tm_stm32f4_ds1307.o(i.TM_DS1307_Bcd2Bin) for TM_DS1307_Bcd2Bin
    tm_stm32f4_ds1307.o(i.TM_DS1307_GetSeconds) refers to tm_stm32f4_i2c.o(i.TM_I2C_Read) for TM_I2C_Read
    tm_stm32f4_ds1307.o(i.TM_DS1307_GetSeconds) refers to tm_stm32f4_ds1307.o(i.TM_DS1307_Bcd2Bin) for TM_DS1307_Bcd2Bin
    tm_stm32f4_ds1307.o(i.TM_DS1307_GetYear) refers to tm_stm32f4_i2c.o(i.TM_I2C_Read) for TM_I2C_Read
    tm_stm32f4_ds1307.o(i.TM_DS1307_GetYear) refers to tm_stm32f4_ds1307.o(i.TM_DS1307_Bcd2Bin) for TM_DS1307_Bcd2Bin
    tm_stm32f4_ds1307.o(i.TM_DS1307_Init) refers to tm_stm32f4_i2c.o(i.TM_I2C_Init) for TM_I2C_Init
    tm_stm32f4_ds1307.o(i.TM_DS1307_Init) refers to tm_stm32f4_i2c.o(i.TM_I2C_IsDeviceConnected) for TM_I2C_IsDeviceConnected
    tm_stm32f4_ds1307.o(i.TM_DS1307_SetDate) refers to tm_stm32f4_ds1307.o(i.TM_DS1307_CheckMinMax) for TM_DS1307_CheckMinMax
    tm_stm32f4_ds1307.o(i.TM_DS1307_SetDate) refers to tm_stm32f4_ds1307.o(i.TM_DS1307_Bin2Bcd) for TM_DS1307_Bin2Bcd
    tm_stm32f4_ds1307.o(i.TM_DS1307_SetDate) refers to tm_stm32f4_i2c.o(i.TM_I2C_Write) for TM_I2C_Write
    tm_stm32f4_ds1307.o(i.TM_DS1307_SetDateTime) refers to tm_stm32f4_ds1307.o(i.TM_DS1307_CheckMinMax) for TM_DS1307_CheckMinMax
    tm_stm32f4_ds1307.o(i.TM_DS1307_SetDateTime) refers to tm_stm32f4_ds1307.o(i.TM_DS1307_Bin2Bcd) for TM_DS1307_Bin2Bcd
    tm_stm32f4_ds1307.o(i.TM_DS1307_SetDateTime) refers to tm_stm32f4_i2c.o(i.TM_I2C_WriteMulti) for TM_I2C_WriteMulti
    tm_stm32f4_ds1307.o(i.TM_DS1307_SetDay) refers to tm_stm32f4_ds1307.o(i.TM_DS1307_CheckMinMax) for TM_DS1307_CheckMinMax
    tm_stm32f4_ds1307.o(i.TM_DS1307_SetDay) refers to tm_stm32f4_ds1307.o(i.TM_DS1307_Bin2Bcd) for TM_DS1307_Bin2Bcd
    tm_stm32f4_ds1307.o(i.TM_DS1307_SetDay) refers to tm_stm32f4_i2c.o(i.TM_I2C_Write) for TM_I2C_Write
    tm_stm32f4_ds1307.o(i.TM_DS1307_SetHours) refers to tm_stm32f4_ds1307.o(i.TM_DS1307_CheckMinMax) for TM_DS1307_CheckMinMax
    tm_stm32f4_ds1307.o(i.TM_DS1307_SetHours) refers to tm_stm32f4_ds1307.o(i.TM_DS1307_Bin2Bcd) for TM_DS1307_Bin2Bcd
    tm_stm32f4_ds1307.o(i.TM_DS1307_SetHours) refers to tm_stm32f4_i2c.o(i.TM_I2C_Write) for TM_I2C_Write
    tm_stm32f4_ds1307.o(i.TM_DS1307_SetMinutes) refers to tm_stm32f4_ds1307.o(i.TM_DS1307_CheckMinMax) for TM_DS1307_CheckMinMax
    tm_stm32f4_ds1307.o(i.TM_DS1307_SetMinutes) refers to tm_stm32f4_ds1307.o(i.TM_DS1307_Bin2Bcd) for TM_DS1307_Bin2Bcd
    tm_stm32f4_ds1307.o(i.TM_DS1307_SetMinutes) refers to tm_stm32f4_i2c.o(i.TM_I2C_Write) for TM_I2C_Write
    tm_stm32f4_ds1307.o(i.TM_DS1307_SetMonth) refers to tm_stm32f4_ds1307.o(i.TM_DS1307_CheckMinMax) for TM_DS1307_CheckMinMax
    tm_stm32f4_ds1307.o(i.TM_DS1307_SetMonth) refers to tm_stm32f4_ds1307.o(i.TM_DS1307_Bin2Bcd) for TM_DS1307_Bin2Bcd
    tm_stm32f4_ds1307.o(i.TM_DS1307_SetMonth) refers to tm_stm32f4_i2c.o(i.TM_I2C_Write) for TM_I2C_Write
    tm_stm32f4_ds1307.o(i.TM_DS1307_SetSeconds) refers to tm_stm32f4_ds1307.o(i.TM_DS1307_CheckMinMax) for TM_DS1307_CheckMinMax
    tm_stm32f4_ds1307.o(i.TM_DS1307_SetSeconds) refers to tm_stm32f4_ds1307.o(i.TM_DS1307_Bin2Bcd) for TM_DS1307_Bin2Bcd
    tm_stm32f4_ds1307.o(i.TM_DS1307_SetSeconds) refers to tm_stm32f4_i2c.o(i.TM_I2C_Write) for TM_I2C_Write
    tm_stm32f4_ds1307.o(i.TM_DS1307_SetYear) refers to tm_stm32f4_ds1307.o(i.TM_DS1307_CheckMinMax) for TM_DS1307_CheckMinMax
    tm_stm32f4_ds1307.o(i.TM_DS1307_SetYear) refers to tm_stm32f4_ds1307.o(i.TM_DS1307_Bin2Bcd) for TM_DS1307_Bin2Bcd
    tm_stm32f4_ds1307.o(i.TM_DS1307_SetYear) refers to tm_stm32f4_i2c.o(i.TM_I2C_Write) for TM_I2C_Write
    tm_stm32f4_gpio.o(i.TM_GPIO_DeInit) refers to tm_stm32f4_gpio.o(i.TM_GPIO_GetPortSource) for TM_GPIO_GetPortSource
    tm_stm32f4_gpio.o(i.TM_GPIO_DeInit) refers to tm_stm32f4_gpio.o(.bss) for GPIO_UsedPins
    tm_stm32f4_gpio.o(i.TM_GPIO_GetFreePins) refers to tm_stm32f4_gpio.o(i.TM_GPIO_GetPortSource) for TM_GPIO_GetPortSource
    tm_stm32f4_gpio.o(i.TM_GPIO_GetFreePins) refers to tm_stm32f4_gpio.o(.bss) for GPIO_UsedPins
    tm_stm32f4_gpio.o(i.TM_GPIO_GetUsedPins) refers to tm_stm32f4_gpio.o(i.TM_GPIO_GetPortSource) for TM_GPIO_GetPortSource
    tm_stm32f4_gpio.o(i.TM_GPIO_GetUsedPins) refers to tm_stm32f4_gpio.o(.bss) for GPIO_UsedPins
    tm_stm32f4_gpio.o(i.TM_GPIO_INT_DisableClock) refers to tm_stm32f4_gpio.o(i.TM_GPIO_GetPortSource) for TM_GPIO_GetPortSource
    tm_stm32f4_gpio.o(i.TM_GPIO_INT_EnableClock) refers to tm_stm32f4_gpio.o(i.TM_GPIO_GetPortSource) for TM_GPIO_GetPortSource
    tm_stm32f4_gpio.o(i.TM_GPIO_INT_Init) refers to tm_stm32f4_gpio.o(i.TM_GPIO_GetPortSource) for TM_GPIO_GetPortSource
    tm_stm32f4_gpio.o(i.TM_GPIO_INT_Init) refers to tm_stm32f4_gpio.o(.bss) for GPIO_UsedPins
    tm_stm32f4_gpio.o(i.TM_GPIO_Init) refers to tm_stm32f4_gpio.o(i.TM_GPIO_INT_EnableClock) for TM_GPIO_INT_EnableClock
    tm_stm32f4_gpio.o(i.TM_GPIO_Init) refers to tm_stm32f4_gpio.o(i.TM_GPIO_INT_Init) for TM_GPIO_INT_Init
    tm_stm32f4_gpio.o(i.TM_GPIO_InitAlternate) refers to tm_stm32f4_gpio.o(i.TM_GPIO_INT_EnableClock) for TM_GPIO_INT_EnableClock
    tm_stm32f4_gpio.o(i.TM_GPIO_InitAlternate) refers to tm_stm32f4_gpio.o(i.TM_GPIO_INT_Init) for TM_GPIO_INT_Init
    tm_stm32f4_i2c.o(i.TM_I2C1_INT_InitPins) refers to tm_stm32f4_gpio.o(i.TM_GPIO_InitAlternate) for TM_GPIO_InitAlternate
    tm_stm32f4_i2c.o(i.TM_I2C2_INT_InitPins) refers to tm_stm32f4_gpio.o(i.TM_GPIO_InitAlternate) for TM_GPIO_InitAlternate
    tm_stm32f4_i2c.o(i.TM_I2C3_INT_InitPins) refers to tm_stm32f4_gpio.o(i.TM_GPIO_InitAlternate) for TM_GPIO_InitAlternate
    tm_stm32f4_i2c.o(i.TM_I2C_Init) refers to tm_stm32f4_i2c.o(i.TM_I2C1_INT_InitPins) for TM_I2C1_INT_InitPins
    tm_stm32f4_i2c.o(i.TM_I2C_Init) refers to tm_stm32f4_i2c.o(i.TM_I2C2_INT_InitPins) for TM_I2C2_INT_InitPins
    tm_stm32f4_i2c.o(i.TM_I2C_Init) refers to tm_stm32f4_i2c.o(i.TM_I2C3_INT_InitPins) for TM_I2C3_INT_InitPins
    tm_stm32f4_i2c.o(i.TM_I2C_Init) refers to stm32f4xx_i2c.o(i.I2C_Init) for I2C_Init
    tm_stm32f4_i2c.o(i.TM_I2C_Init) refers to tm_stm32f4_i2c.o(.data) for TM_I2C_INT_Clocks
    tm_stm32f4_i2c.o(i.TM_I2C_IsDeviceConnected) refers to tm_stm32f4_i2c.o(i.TM_I2C_Start) for TM_I2C_Start
    tm_stm32f4_i2c.o(i.TM_I2C_IsDeviceConnected) refers to tm_stm32f4_i2c.o(i.TM_I2C_Stop) for TM_I2C_Stop
    tm_stm32f4_i2c.o(i.TM_I2C_Read) refers to tm_stm32f4_i2c.o(i.TM_I2C_Start) for TM_I2C_Start
    tm_stm32f4_i2c.o(i.TM_I2C_Read) refers to tm_stm32f4_i2c.o(i.TM_I2C_WriteData) for TM_I2C_WriteData
    tm_stm32f4_i2c.o(i.TM_I2C_Read) refers to tm_stm32f4_i2c.o(i.TM_I2C_Stop) for TM_I2C_Stop
    tm_stm32f4_i2c.o(i.TM_I2C_Read) refers to tm_stm32f4_i2c.o(i.TM_I2C_ReadNack) for TM_I2C_ReadNack
    tm_stm32f4_i2c.o(i.TM_I2C_ReadAck) refers to stm32f4xx_i2c.o(i.I2C_CheckEvent) for I2C_CheckEvent
    tm_stm32f4_i2c.o(i.TM_I2C_ReadAck) refers to tm_stm32f4_i2c.o(.data) for TM_I2C_Timeout
    tm_stm32f4_i2c.o(i.TM_I2C_ReadMulti) refers to tm_stm32f4_i2c.o(i.TM_I2C_Start) for TM_I2C_Start
    tm_stm32f4_i2c.o(i.TM_I2C_ReadMulti) refers to tm_stm32f4_i2c.o(i.TM_I2C_WriteData) for TM_I2C_WriteData
    tm_stm32f4_i2c.o(i.TM_I2C_ReadMulti) refers to tm_stm32f4_i2c.o(i.TM_I2C_Stop) for TM_I2C_Stop
    tm_stm32f4_i2c.o(i.TM_I2C_ReadMulti) refers to tm_stm32f4_i2c.o(i.TM_I2C_ReadNack) for TM_I2C_ReadNack
    tm_stm32f4_i2c.o(i.TM_I2C_ReadMulti) refers to tm_stm32f4_i2c.o(i.TM_I2C_ReadAck) for TM_I2C_ReadAck
    tm_stm32f4_i2c.o(i.TM_I2C_ReadMultiNoRegister) refers to tm_stm32f4_i2c.o(i.TM_I2C_Start) for TM_I2C_Start
    tm_stm32f4_i2c.o(i.TM_I2C_ReadMultiNoRegister) refers to tm_stm32f4_i2c.o(i.TM_I2C_ReadNack) for TM_I2C_ReadNack
    tm_stm32f4_i2c.o(i.TM_I2C_ReadMultiNoRegister) refers to tm_stm32f4_i2c.o(i.TM_I2C_ReadAck) for TM_I2C_ReadAck
    tm_stm32f4_i2c.o(i.TM_I2C_ReadNack) refers to stm32f4xx_i2c.o(i.I2C_CheckEvent) for I2C_CheckEvent
    tm_stm32f4_i2c.o(i.TM_I2C_ReadNack) refers to tm_stm32f4_i2c.o(.data) for TM_I2C_Timeout
    tm_stm32f4_i2c.o(i.TM_I2C_ReadNoRegister) refers to tm_stm32f4_i2c.o(i.TM_I2C_Start) for TM_I2C_Start
    tm_stm32f4_i2c.o(i.TM_I2C_ReadNoRegister) refers to tm_stm32f4_i2c.o(i.TM_I2C_ReadNack) for TM_I2C_ReadNack
    tm_stm32f4_i2c.o(i.TM_I2C_Start) refers to stm32f4xx_i2c.o(i.I2C_CheckEvent) for I2C_CheckEvent
    tm_stm32f4_i2c.o(i.TM_I2C_Start) refers to tm_stm32f4_i2c.o(.data) for TM_I2C_Timeout
    tm_stm32f4_i2c.o(i.TM_I2C_Stop) refers to tm_stm32f4_i2c.o(.data) for TM_I2C_Timeout
    tm_stm32f4_i2c.o(i.TM_I2C_Write) refers to tm_stm32f4_i2c.o(i.TM_I2C_Start) for TM_I2C_Start
    tm_stm32f4_i2c.o(i.TM_I2C_Write) refers to tm_stm32f4_i2c.o(i.TM_I2C_WriteData) for TM_I2C_WriteData
    tm_stm32f4_i2c.o(i.TM_I2C_Write) refers to tm_stm32f4_i2c.o(i.TM_I2C_Stop) for TM_I2C_Stop
    tm_stm32f4_i2c.o(i.TM_I2C_WriteData) refers to tm_stm32f4_i2c.o(.data) for TM_I2C_Timeout
    tm_stm32f4_i2c.o(i.TM_I2C_WriteMulti) refers to tm_stm32f4_i2c.o(i.TM_I2C_Start) for TM_I2C_Start
    tm_stm32f4_i2c.o(i.TM_I2C_WriteMulti) refers to tm_stm32f4_i2c.o(i.TM_I2C_WriteData) for TM_I2C_WriteData
    tm_stm32f4_i2c.o(i.TM_I2C_WriteMulti) refers to tm_stm32f4_i2c.o(i.TM_I2C_Stop) for TM_I2C_Stop
    tm_stm32f4_i2c.o(i.TM_I2C_WriteMultiNoRegister) refers to tm_stm32f4_i2c.o(i.TM_I2C_Start) for TM_I2C_Start
    tm_stm32f4_i2c.o(i.TM_I2C_WriteMultiNoRegister) refers to tm_stm32f4_i2c.o(i.TM_I2C_WriteData) for TM_I2C_WriteData
    tm_stm32f4_i2c.o(i.TM_I2C_WriteMultiNoRegister) refers to tm_stm32f4_i2c.o(i.TM_I2C_Stop) for TM_I2C_Stop
    tm_stm32f4_i2c.o(i.TM_I2C_WriteNoRegister) refers to tm_stm32f4_i2c.o(i.TM_I2C_Start) for TM_I2C_Start
    tm_stm32f4_i2c.o(i.TM_I2C_WriteNoRegister) refers to tm_stm32f4_i2c.o(i.TM_I2C_WriteData) for TM_I2C_WriteData
    tm_stm32f4_i2c.o(i.TM_I2C_WriteNoRegister) refers to tm_stm32f4_i2c.o(i.TM_I2C_Stop) for TM_I2C_Stop
    rtx_conf_cm.o(.emb_text) refers to rt_cmsis.o(i.osKernelInitialize) for osKernelInitialize
    rtx_conf_cm.o(.emb_text) refers to rt_cmsis.o(i.osThreadCreate) for osThreadCreate
    rtx_conf_cm.o(.emb_text) refers to rt_cmsis.o(i.osKernelStart) for osKernelStart
    rtx_conf_cm.o(.emb_text) refers to exit.o(.text) for exit
    rtx_conf_cm.o(.emb_text) refers to rtx_conf_cm.o(.data) for os_thread_def_main
    rtx_conf_cm.o(i.__user_perthread_libspace) refers to rt_task.o(i.rt_tsk_self) for rt_tsk_self
    rtx_conf_cm.o(i.__user_perthread_libspace) refers to rt_cmsis.o(.data) for os_running
    rtx_conf_cm.o(i.__user_perthread_libspace) refers to rtx_conf_cm.o(.bss) for .bss
    rtx_conf_cm.o(i.__user_perthread_libspace) refers to libspace.o(.bss) for __libspace_start
    rtx_conf_cm.o(i._mutex_acquire) refers to rt_cmsis.o(.data) for os_running
    rtx_conf_cm.o(i._mutex_acquire) refers to rt_mutex.o(i.rt_mut_wait) for rt_mut_wait
    rtx_conf_cm.o(i._mutex_initialize) refers to rt_mutex.o(i.rt_mut_init) for rt_mut_init
    rtx_conf_cm.o(i._mutex_initialize) refers to rtx_conf_cm.o(.data) for .data
    rtx_conf_cm.o(i._mutex_initialize) refers to rtx_conf_cm.o(.bss) for .bss
    rtx_conf_cm.o(i._mutex_release) refers to rt_cmsis.o(.data) for os_running
    rtx_conf_cm.o(i._mutex_release) refers to rt_mutex.o(i.rt_mut_release) for rt_mut_release
    rtx_conf_cm.o(.constdata) refers to rt_cmsis.o(i.osTimerThread) for osTimerThread
    rtx_conf_cm.o(.constdata) refers to rtx_conf_cm.o(.bss) for os_messageQ_q_osTimerMessageQ
    rtx_conf_cm.o(.data) refers to main.o(i.main) for main
    startup_stm32f407xx.o(STACK) refers (Special) to heapauxi.o(.text) for __use_two_region_memory
    startup_stm32f407xx.o(HEAP) refers (Special) to heapauxi.o(.text) for __use_two_region_memory
    startup_stm32f407xx.o(RESET) refers (Special) to heapauxi.o(.text) for __use_two_region_memory
    startup_stm32f407xx.o(RESET) refers to startup_stm32f407xx.o(STACK) for __initial_sp
    startup_stm32f407xx.o(RESET) refers to startup_stm32f407xx.o(.text) for Reset_Handler
    startup_stm32f407xx.o(RESET) refers to hal_cm4.o(.emb_text) for SVC_Handler
    startup_stm32f407xx.o(RESET) refers to main.o(i.EXTI0_IRQHandler) for EXTI0_IRQHandler
    startup_stm32f407xx.o(RESET) refers to main.o(i.EXTI15_10_IRQHandler) for EXTI15_10_IRQHandler
    startup_stm32f407xx.o(RESET) refers to main.o(i.USART6_IRQHandler) for USART6_IRQHandler
    startup_stm32f407xx.o(.text) refers (Special) to heapauxi.o(.text) for __use_two_region_memory
    startup_stm32f407xx.o(.text) refers to system_stm32f4xx.o(i.SystemInit) for SystemInit
    startup_stm32f407xx.o(.text) refers to __main.o(!!!main) for __main
    startup_stm32f407xx.o(.text) refers to startup_stm32f407xx.o(HEAP) for Heap_Mem
    startup_stm32f407xx.o(.text) refers to startup_stm32f407xx.o(STACK) for Stack_Mem
    system_stm32f4xx.o(i.SystemCoreClockUpdate) refers to system_stm32f4xx.o(.data) for SystemCoreClock
    system_stm32f4xx.o(i.SystemCoreClockUpdate) refers to system_stm32f4xx.o(.constdata) for AHBPrescTable
    rt_cmsis.o(i.isrMessageGet) refers to rt_mailbox.o(i.isr_mbx_receive) for isr_mbx_receive
    rt_cmsis.o(i.isrMessagePut) refers to rt_mailbox.o(i.rt_mbx_check) for rt_mbx_check
    rt_cmsis.o(i.isrMessagePut) refers to rt_mailbox.o(i.isr_mbx_send) for isr_mbx_send
    rt_cmsis.o(i.isrSemaphoreRelease) refers to rt_cmsis.o(i.rt_id2obj) for rt_id2obj
    rt_cmsis.o(i.isrSemaphoreRelease) refers to rt_semaphore.o(i.isr_sem_send) for isr_sem_send
    rt_cmsis.o(i.isrSignalSet) refers to rt_cmsis.o(i.rt_tid2ptcb) for rt_tid2ptcb
    rt_cmsis.o(i.isrSignalSet) refers to rt_event.o(i.isr_evt_set) for isr_evt_set
    rt_cmsis.o(i.osDelay) refers to rt_cmsis.o(i.svcDelay) for svcDelay
    rt_cmsis.o(i.osKernelInitialize) refers to rt_cmsis.o(i.svcKernelInitialize) for svcKernelInitialize
    rt_cmsis.o(i.osKernelRunning) refers to rt_cmsis.o(i.svcKernelRunning) for svcKernelRunning
    rt_cmsis.o(i.osKernelRunning) refers to rt_cmsis.o(.data) for .data
    rt_cmsis.o(i.osKernelStart) refers to rtx_conf_cm.o(.constdata) for os_flags
    rt_cmsis.o(i.osKernelStart) refers to rt_cmsis.o(i.svcKernelStart) for svcKernelStart
    rt_cmsis.o(i.osKernelSysTick) refers to rt_cmsis.o(i.svcKernelSysTick) for svcKernelSysTick
    rt_cmsis.o(i.osMailAlloc) refers to rt_cmsis.o(i.sysMailAlloc) for sysMailAlloc
    rt_cmsis.o(i.osMailCAlloc) refers to rt_cmsis.o(i.sysMailAlloc) for sysMailAlloc
    rt_cmsis.o(i.osMailCAlloc) refers to rt_cmsis.o(i.rt_clr_box) for rt_clr_box
    rt_cmsis.o(i.osMailCreate) refers to rt_cmsis.o(i.svcMailCreate) for svcMailCreate
    rt_cmsis.o(i.osMailCreate) refers to rt_cmsis.o(.data) for .data
    rt_cmsis.o(i.osMailFree) refers to rt_cmsis.o(i.sysMailFree) for sysMailFree
    rt_cmsis.o(i.osMailGet) refers to rt_cmsis.o(i.osMessageGet) for osMessageGet
    rt_cmsis.o(i.osMailPut) refers to rt_cmsis.o(i.osMessagePut) for osMessagePut
    rt_cmsis.o(i.osMessageCreate) refers to rt_cmsis.o(i.svcMessageCreate) for svcMessageCreate
    rt_cmsis.o(i.osMessageCreate) refers to rt_cmsis.o(.data) for .data
    rt_cmsis.o(i.osMessageGet) refers to rt_cmsis.o(i.isrMessageGet) for isrMessageGet
    rt_cmsis.o(i.osMessageGet) refers to rt_cmsis.o(i.svcMessageGet) for svcMessageGet
    rt_cmsis.o(i.osMessagePut) refers to rt_cmsis.o(i.isrMessagePut) for isrMessagePut
    rt_cmsis.o(i.osMessagePut) refers to rt_cmsis.o(i.svcMessagePut) for svcMessagePut
    rt_cmsis.o(i.osMutexCreate) refers to rt_cmsis.o(i.svcMutexCreate) for svcMutexCreate
    rt_cmsis.o(i.osMutexCreate) refers to rt_cmsis.o(.data) for .data
    rt_cmsis.o(i.osMutexDelete) refers to rt_cmsis.o(i.svcMutexDelete) for svcMutexDelete
    rt_cmsis.o(i.osMutexRelease) refers to rt_cmsis.o(i.svcMutexRelease) for svcMutexRelease
    rt_cmsis.o(i.osMutexWait) refers to rt_cmsis.o(i.svcMutexWait) for svcMutexWait
    rt_cmsis.o(i.osPoolAlloc) refers to rt_cmsis.o(i.sysPoolAlloc) for sysPoolAlloc
    rt_cmsis.o(i.osPoolCAlloc) refers to rt_cmsis.o(i.rt_clr_box) for rt_clr_box
    rt_cmsis.o(i.osPoolCAlloc) refers to rt_cmsis.o(i.sysPoolAlloc) for sysPoolAlloc
    rt_cmsis.o(i.osPoolCreate) refers to rt_cmsis.o(i.svcPoolCreate) for svcPoolCreate
    rt_cmsis.o(i.osPoolCreate) refers to rt_cmsis.o(.data) for .data
    rt_cmsis.o(i.osPoolFree) refers to rt_cmsis.o(i.sysPoolFree) for sysPoolFree
    rt_cmsis.o(i.osSemaphoreCreate) refers to rt_cmsis.o(i.svcSemaphoreCreate) for svcSemaphoreCreate
    rt_cmsis.o(i.osSemaphoreCreate) refers to rt_cmsis.o(.data) for .data
    rt_cmsis.o(i.osSemaphoreDelete) refers to rt_cmsis.o(i.svcSemaphoreDelete) for svcSemaphoreDelete
    rt_cmsis.o(i.osSemaphoreRelease) refers to rt_cmsis.o(i.isrSemaphoreRelease) for isrSemaphoreRelease
    rt_cmsis.o(i.osSemaphoreRelease) refers to rt_cmsis.o(i.svcSemaphoreRelease) for svcSemaphoreRelease
    rt_cmsis.o(i.osSemaphoreWait) refers to rt_cmsis.o(i.svcSemaphoreWait) for svcSemaphoreWait
    rt_cmsis.o(i.osSignalClear) refers to rt_cmsis.o(i.svcSignalClear) for svcSignalClear
    rt_cmsis.o(i.osSignalSet) refers to rt_cmsis.o(i.isrSignalSet) for isrSignalSet
    rt_cmsis.o(i.osSignalSet) refers to rt_cmsis.o(i.svcSignalSet) for svcSignalSet
    rt_cmsis.o(i.osSignalWait) refers to rt_cmsis.o(i.svcSignalWait) for svcSignalWait
    rt_cmsis.o(i.osThreadCreate) refers to rt_cmsis.o(i.svcThreadCreate) for svcThreadCreate
    rt_cmsis.o(i.osThreadCreate) refers to rt_cmsis.o(.data) for .data
    rt_cmsis.o(i.osThreadExit) refers to rt_cmsis.o(i.svcThreadGetId) for svcThreadGetId
    rt_cmsis.o(i.osThreadExit) refers to rt_cmsis.o(i.svcThreadTerminate) for svcThreadTerminate
    rt_cmsis.o(i.osThreadGetId) refers to rt_cmsis.o(i.svcThreadGetId) for svcThreadGetId
    rt_cmsis.o(i.osThreadGetPriority) refers to rt_cmsis.o(i.svcThreadGetPriority) for svcThreadGetPriority
    rt_cmsis.o(i.osThreadSetPriority) refers to rt_cmsis.o(i.svcThreadSetPriority) for svcThreadSetPriority
    rt_cmsis.o(i.osThreadTerminate) refers to rt_cmsis.o(i.svcThreadTerminate) for svcThreadTerminate
    rt_cmsis.o(i.osThreadYield) refers to rt_cmsis.o(i.svcThreadYield) for svcThreadYield
    rt_cmsis.o(i.osTimerCall) refers to rt_cmsis.o(i.svcTimerCall) for svcTimerCall
    rt_cmsis.o(i.osTimerCreate) refers to rt_cmsis.o(i.svcTimerCreate) for svcTimerCreate
    rt_cmsis.o(i.osTimerCreate) refers to rt_cmsis.o(.data) for .data
    rt_cmsis.o(i.osTimerDelete) refers to rt_cmsis.o(i.svcTimerDelete) for svcTimerDelete
    rt_cmsis.o(i.osTimerStart) refers to rt_cmsis.o(i.svcTimerStart) for svcTimerStart
    rt_cmsis.o(i.osTimerStop) refers to rt_cmsis.o(i.svcTimerStop) for svcTimerStop
    rt_cmsis.o(i.osTimerThread) refers to rt_cmsis.o(i.osMessageGet) for osMessageGet
    rt_cmsis.o(i.osTimerThread) refers to rt_cmsis.o(i.osTimerCall) for osTimerCall
    rt_cmsis.o(i.osTimerThread) refers to rtx_conf_cm.o(.data) for osMessageQId_osTimerMessageQ
    rt_cmsis.o(i.os_resume) refers to rt_system.o(i.rt_resume) for rt_resume
    rt_cmsis.o(i.os_suspend) refers to rt_system.o(i.rt_suspend) for rt_suspend
    rt_cmsis.o(i.rt_ms2tick) refers to rtx_conf_cm.o(.constdata) for os_clockrate
    rt_cmsis.o(i.rt_timer_insert) refers to rt_cmsis.o(.data) for .data
    rt_cmsis.o(i.rt_timer_remove) refers to rt_cmsis.o(.data) for .data
    rt_cmsis.o(i.svcDelay) refers to rt_cmsis.o(i.rt_ms2tick) for rt_ms2tick
    rt_cmsis.o(i.svcDelay) refers to rt_time.o(i.rt_dly_wait) for rt_dly_wait
    rt_cmsis.o(i.svcKernelInitialize) refers to rt_memory.o(i.rt_init_mem) for rt_init_mem
    rt_cmsis.o(i.svcKernelInitialize) refers to rt_task.o(i.rt_sys_init) for rt_sys_init
    rt_cmsis.o(i.svcKernelInitialize) refers to rt_cmsis.o(i.svcMessageCreate) for svcMessageCreate
    rt_cmsis.o(i.svcKernelInitialize) refers to rt_cmsis.o(i.svcThreadCreate) for svcThreadCreate
    rt_cmsis.o(i.svcKernelInitialize) refers to rt_cmsis.o(.data) for .data
    rt_cmsis.o(i.svcKernelInitialize) refers to rtx_conf_cm.o(.bss) for os_stack_mem
    rt_cmsis.o(i.svcKernelInitialize) refers to rtx_conf_cm.o(.constdata) for os_stack_sz
    rt_cmsis.o(i.svcKernelInitialize) refers to rt_task.o(.data) for os_tsk
    rt_cmsis.o(i.svcKernelInitialize) refers to rtx_conf_cm.o(.data) for osMessageQId_osTimerMessageQ
    rt_cmsis.o(i.svcKernelRunning) refers to rt_cmsis.o(.data) for .data
    rt_cmsis.o(i.svcKernelStart) refers to rt_task.o(i.rt_tsk_prio) for rt_tsk_prio
    rt_cmsis.o(i.svcKernelStart) refers to rt_task.o(i.rt_sys_start) for rt_sys_start
    rt_cmsis.o(i.svcKernelStart) refers to rt_cmsis.o(.data) for .data
    rt_cmsis.o(i.svcKernelStart) refers to rt_task.o(.data) for os_tsk
    rt_cmsis.o(i.svcKernelSysTick) refers to rt_system.o(i.os_tick_val) for os_tick_val
    rt_cmsis.o(i.svcKernelSysTick) refers to rt_system.o(i.os_tick_ovf) for os_tick_ovf
    rt_cmsis.o(i.svcKernelSysTick) refers to rtx_conf_cm.o(.constdata) for os_trv
    rt_cmsis.o(i.svcKernelSysTick) refers to rt_time.o(.data) for os_time
    rt_cmsis.o(i.svcMailCreate) refers to rt_membox.o(i._init_box) for _init_box
    rt_cmsis.o(i.svcMailCreate) refers to rt_mailbox.o(i.rt_mbx_init) for rt_mbx_init
    rt_cmsis.o(i.svcMessageCreate) refers to rt_mailbox.o(i.rt_mbx_init) for rt_mbx_init
    rt_cmsis.o(i.svcMessageGet) refers to rt_cmsis.o(i.rt_ms2tick) for rt_ms2tick
    rt_cmsis.o(i.svcMessageGet) refers to rt_mailbox.o(i.rt_mbx_wait) for rt_mbx_wait
    rt_cmsis.o(i.svcMessagePut) refers to rt_cmsis.o(i.rt_ms2tick) for rt_ms2tick
    rt_cmsis.o(i.svcMessagePut) refers to rt_mailbox.o(i.rt_mbx_send) for rt_mbx_send
    rt_cmsis.o(i.svcMutexCreate) refers to rt_mutex.o(i.rt_mut_init) for rt_mut_init
    rt_cmsis.o(i.svcMutexDelete) refers to rt_cmsis.o(i.rt_id2obj) for rt_id2obj
    rt_cmsis.o(i.svcMutexDelete) refers to rt_mutex.o(i.rt_mut_delete) for rt_mut_delete
    rt_cmsis.o(i.svcMutexRelease) refers to rt_cmsis.o(i.rt_id2obj) for rt_id2obj
    rt_cmsis.o(i.svcMutexRelease) refers to rt_mutex.o(i.rt_mut_release) for rt_mut_release
    rt_cmsis.o(i.svcMutexWait) refers to rt_cmsis.o(i.rt_id2obj) for rt_id2obj
    rt_cmsis.o(i.svcMutexWait) refers to rt_cmsis.o(i.rt_ms2tick) for rt_ms2tick
    rt_cmsis.o(i.svcMutexWait) refers to rt_mutex.o(i.rt_mut_wait) for rt_mut_wait
    rt_cmsis.o(i.svcPoolCreate) refers to rt_membox.o(i._init_box) for _init_box
    rt_cmsis.o(i.svcSemaphoreCreate) refers to rt_semaphore.o(i.rt_sem_init) for rt_sem_init
    rt_cmsis.o(i.svcSemaphoreDelete) refers to rt_cmsis.o(i.rt_id2obj) for rt_id2obj
    rt_cmsis.o(i.svcSemaphoreDelete) refers to rt_semaphore.o(i.rt_sem_delete) for rt_sem_delete
    rt_cmsis.o(i.svcSemaphoreRelease) refers to rt_cmsis.o(i.rt_id2obj) for rt_id2obj
    rt_cmsis.o(i.svcSemaphoreRelease) refers to rt_semaphore.o(i.rt_sem_send) for rt_sem_send
    rt_cmsis.o(i.svcSemaphoreWait) refers to rt_cmsis.o(i.rt_id2obj) for rt_id2obj
    rt_cmsis.o(i.svcSemaphoreWait) refers to rt_cmsis.o(i.rt_ms2tick) for rt_ms2tick
    rt_cmsis.o(i.svcSemaphoreWait) refers to rt_semaphore.o(i.rt_sem_wait) for rt_sem_wait
    rt_cmsis.o(i.svcSignalClear) refers to rt_cmsis.o(i.rt_tid2ptcb) for rt_tid2ptcb
    rt_cmsis.o(i.svcSignalClear) refers to rt_event.o(i.rt_evt_clr) for rt_evt_clr
    rt_cmsis.o(i.svcSignalSet) refers to rt_cmsis.o(i.rt_tid2ptcb) for rt_tid2ptcb
    rt_cmsis.o(i.svcSignalSet) refers to rt_event.o(i.rt_evt_set) for rt_evt_set
    rt_cmsis.o(i.svcSignalWait) refers to rt_cmsis.o(i.rt_ms2tick) for rt_ms2tick
    rt_cmsis.o(i.svcSignalWait) refers to rt_event.o(i.rt_evt_wait) for rt_evt_wait
    rt_cmsis.o(i.svcSignalWait) refers to rt_task.o(.data) for os_tsk
    rt_cmsis.o(i.svcThreadCreate) refers to rt_memory.o(i.rt_alloc_mem) for rt_alloc_mem
    rt_cmsis.o(i.svcThreadCreate) refers to rt_task.o(i.rt_tsk_create) for rt_tsk_create
    rt_cmsis.o(i.svcThreadCreate) refers to rt_memory.o(i.rt_free_mem) for rt_free_mem
    rt_cmsis.o(i.svcThreadCreate) refers to rtx_conf_cm.o(.bss) for os_stack_mem
    rt_cmsis.o(i.svcThreadCreate) refers to rt_cmsis.o(i.osThreadExit) for osThreadExit
    rt_cmsis.o(i.svcThreadGetId) refers to rt_task.o(i.rt_tsk_self) for rt_tsk_self
    rt_cmsis.o(i.svcThreadGetId) refers to rtx_conf_cm.o(.bss) for os_active_TCB
    rt_cmsis.o(i.svcThreadGetPriority) refers to rt_cmsis.o(i.rt_tid2ptcb) for rt_tid2ptcb
    rt_cmsis.o(i.svcThreadSetPriority) refers to rt_cmsis.o(i.rt_tid2ptcb) for rt_tid2ptcb
    rt_cmsis.o(i.svcThreadSetPriority) refers to rt_task.o(i.rt_tsk_prio) for rt_tsk_prio
    rt_cmsis.o(i.svcThreadTerminate) refers to rt_cmsis.o(i.rt_tid2ptcb) for rt_tid2ptcb
    rt_cmsis.o(i.svcThreadTerminate) refers to rt_task.o(i.rt_tsk_delete) for rt_tsk_delete
    rt_cmsis.o(i.svcThreadTerminate) refers to rt_memory.o(i.rt_free_mem) for rt_free_mem
    rt_cmsis.o(i.svcThreadTerminate) refers to rtx_conf_cm.o(.bss) for os_stack_mem
    rt_cmsis.o(i.svcThreadYield) refers to rt_task.o(i.rt_tsk_pass) for rt_tsk_pass
    rt_cmsis.o(i.svcTimerCall) refers to rt_cmsis.o(i.rt_id2obj) for rt_id2obj
    rt_cmsis.o(i.svcTimerCreate) refers to rtx_conf_cm.o(.data) for osThreadId_osTimerThread
    rt_cmsis.o(i.svcTimerDelete) refers to rt_cmsis.o(i.rt_id2obj) for rt_id2obj
    rt_cmsis.o(i.svcTimerDelete) refers to rt_cmsis.o(i.rt_timer_remove) for rt_timer_remove
    rt_cmsis.o(i.svcTimerStart) refers to rt_cmsis.o(i.rt_id2obj) for rt_id2obj
    rt_cmsis.o(i.svcTimerStart) refers to lludivv7m.o(.text) for __aeabi_uldivmod
    rt_cmsis.o(i.svcTimerStart) refers to rt_cmsis.o(i.rt_timer_remove) for rt_timer_remove
    rt_cmsis.o(i.svcTimerStart) refers to rt_cmsis.o(i.rt_timer_insert) for rt_timer_insert
    rt_cmsis.o(i.svcTimerStart) refers to rtx_conf_cm.o(.constdata) for os_clockrate
    rt_cmsis.o(i.svcTimerStop) refers to rt_cmsis.o(i.rt_id2obj) for rt_id2obj
    rt_cmsis.o(i.svcTimerStop) refers to rt_cmsis.o(i.rt_timer_remove) for rt_timer_remove
    rt_cmsis.o(i.sysMailAlloc) refers to rt_membox.o(i.rt_alloc_box) for rt_alloc_box
    rt_cmsis.o(i.sysMailAlloc) refers to rt_list.o(i.rt_put_prio) for rt_put_prio
    rt_cmsis.o(i.sysMailAlloc) refers to rt_cmsis.o(i.rt_ms2tick) for rt_ms2tick
    rt_cmsis.o(i.sysMailAlloc) refers to rt_task.o(i.rt_block) for rt_block
    rt_cmsis.o(i.sysMailAlloc) refers to rt_task.o(.data) for os_tsk
    rt_cmsis.o(i.sysMailFree) refers to rt_membox.o(i.rt_free_box) for rt_free_box
    rt_cmsis.o(i.sysMailFree) refers to rt_list.o(i.rt_psq_enq) for rt_psq_enq
    rt_cmsis.o(i.sysMailFree) refers to rt_system.o(i.rt_psh_req) for rt_psh_req
    rt_cmsis.o(i.sysMailFree) refers to rt_membox.o(i.rt_alloc_box) for rt_alloc_box
    rt_cmsis.o(i.sysMailFree) refers to rt_list.o(i.rt_get_first) for rt_get_first
    rt_cmsis.o(i.sysMailFree) refers to hal_cm.o(i.rt_ret_val) for rt_ret_val
    rt_cmsis.o(i.sysMailFree) refers to rt_list.o(i.rt_rmv_dly) for rt_rmv_dly
    rt_cmsis.o(i.sysMailFree) refers to rt_task.o(i.rt_dispatch) for rt_dispatch
    rt_cmsis.o(i.sysPoolAlloc) refers to rt_membox.o(i.rt_alloc_box) for rt_alloc_box
    rt_cmsis.o(i.sysPoolFree) refers to rt_membox.o(i.rt_free_box) for rt_free_box
    rt_cmsis.o(i.sysTimerTick) refers to rt_cmsis.o(i.isrMessagePut) for isrMessagePut
    rt_cmsis.o(i.sysTimerTick) refers to rtx_conf_cm.o(i.os_error) for os_error
    rt_cmsis.o(i.sysTimerTick) refers to rt_cmsis.o(i.rt_timer_insert) for rt_timer_insert
    rt_cmsis.o(i.sysTimerTick) refers to rt_cmsis.o(.data) for .data
    rt_cmsis.o(i.sysTimerTick) refers to rtx_conf_cm.o(.data) for osMessageQId_osTimerMessageQ
    rt_cmsis.o(i.sysUserTimerUpdate) refers to rt_cmsis.o(i.sysTimerTick) for sysTimerTick
    rt_cmsis.o(i.sysUserTimerUpdate) refers to rt_cmsis.o(.data) for .data
    rt_cmsis.o(i.sysUserTimerWakeupTime) refers to rt_cmsis.o(.data) for .data
    rt_task.o(i.rt_block) refers to rt_list.o(i.rt_put_dly) for rt_put_dly
    rt_task.o(i.rt_block) refers to rt_list.o(i.rt_get_first) for rt_get_first
    rt_task.o(i.rt_block) refers to rt_task.o(i.rt_switch_req) for rt_switch_req
    rt_task.o(i.rt_block) refers to rt_task.o(.data) for .data
    rt_task.o(i.rt_block) refers to rt_list.o(.bss) for os_rdy
    rt_task.o(i.rt_dispatch) refers to rt_list.o(i.rt_put_rdy_first) for rt_put_rdy_first
    rt_task.o(i.rt_dispatch) refers to rt_task.o(i.rt_switch_req) for rt_switch_req
    rt_task.o(i.rt_dispatch) refers to rt_list.o(i.rt_get_first) for rt_get_first
    rt_task.o(i.rt_dispatch) refers to rt_list.o(i.rt_put_prio) for rt_put_prio
    rt_task.o(i.rt_dispatch) refers to rt_task.o(.data) for .data
    rt_task.o(i.rt_dispatch) refers to rt_list.o(.bss) for os_rdy
    rt_task.o(i.rt_init_context) refers to rt_membox.o(i.rt_alloc_box) for rt_alloc_box
    rt_task.o(i.rt_init_context) refers to hal_cm.o(i.rt_init_stack) for rt_init_stack
    rt_task.o(i.rt_init_context) refers to rtx_conf_cm.o(.bss) for mp_stk
    rt_task.o(i.rt_switch_req) refers to hal_cm.o(i.dbg_task_switch) for dbg_task_switch
    rt_task.o(i.rt_switch_req) refers to rt_task.o(.data) for .data
    rt_task.o(i.rt_switch_req) refers to hal_cm.o(.data) for dbg_msg
    rt_task.o(i.rt_sys_init) refers to hal_cm.o(i.dbg_init) for dbg_init
    rt_task.o(i.rt_sys_init) refers to rt_membox.o(i._init_box) for _init_box
    rt_task.o(i.rt_sys_init) refers to rt_task.o(i.rt_init_context) for rt_init_context
    rt_task.o(i.rt_sys_init) refers to rt_robin.o(i.rt_init_robin) for rt_init_robin
    rt_task.o(i.rt_sys_init) refers to rtx_conf_cm.o(.bss) for os_active_TCB
    rt_task.o(i.rt_sys_init) refers to rtx_conf_cm.o(.constdata) for os_maxtaskrun
    rt_task.o(i.rt_sys_init) refers to rtx_conf_cm.o(.data) for m_tmr
    rt_task.o(i.rt_sys_init) refers to rt_task.o(.bss) for .bss
    rt_task.o(i.rt_sys_init) refers to rtx_conf_cm.o(i.os_idle_demon) for os_idle_demon
    rt_task.o(i.rt_sys_init) refers to rt_list.o(.bss) for os_rdy
    rt_task.o(i.rt_sys_init) refers to rt_task.o(.data) for .data
    rt_task.o(i.rt_sys_start) refers to rt_system.o(i.os_tick_init) for os_tick_init
    rt_task.o(i.rt_sys_start) refers to rt_system.o(.data) for os_tick_irqn
    rt_task.o(i.rt_tsk_create) refers to rt_membox.o(i.rt_alloc_box) for rt_alloc_box
    rt_task.o(i.rt_tsk_create) refers to rt_task.o(i.rt_init_context) for rt_init_context
    rt_task.o(i.rt_tsk_create) refers to hal_cm.o(i.dbg_task_notify) for dbg_task_notify
    rt_task.o(i.rt_tsk_create) refers to rt_task.o(i.rt_dispatch) for rt_dispatch
    rt_task.o(i.rt_tsk_create) refers to rtx_conf_cm.o(.bss) for mp_tcb
    rt_task.o(i.rt_tsk_create) refers to rtx_conf_cm.o(.constdata) for os_maxtaskrun
    rt_task.o(i.rt_tsk_create) refers to hal_cm.o(.data) for dbg_msg
    rt_task.o(i.rt_tsk_delete) refers to hal_cm4.o(.emb_text) for rt_get_PSP
    rt_task.o(i.rt_tsk_delete) refers to rt_system.o(i.rt_stk_check) for rt_stk_check
    rt_task.o(i.rt_tsk_delete) refers to rt_list.o(i.rt_get_first) for rt_get_first
    rt_task.o(i.rt_tsk_delete) refers to hal_cm.o(i.rt_ret_val) for rt_ret_val
    rt_task.o(i.rt_tsk_delete) refers to rt_list.o(i.rt_rmv_dly) for rt_rmv_dly
    rt_task.o(i.rt_tsk_delete) refers to rt_list.o(i.rt_put_prio) for rt_put_prio
    rt_task.o(i.rt_tsk_delete) refers to rt_membox.o(i.rt_free_box) for rt_free_box
    rt_task.o(i.rt_tsk_delete) refers to hal_cm.o(i.dbg_task_notify) for dbg_task_notify
    rt_task.o(i.rt_tsk_delete) refers to rt_list.o(i.rt_rmv_list) for rt_rmv_list
    rt_task.o(i.rt_tsk_delete) refers to rt_task.o(i.rt_dispatch) for rt_dispatch
    rt_task.o(i.rt_tsk_delete) refers to hal_cm.o(.data) for dbg_msg
    rt_task.o(i.rt_tsk_delete) refers to rtx_conf_cm.o(.bss) for os_active_TCB
    rt_task.o(i.rt_tsk_delete) refers to rt_task.o(.data) for .data
    rt_task.o(i.rt_tsk_delete) refers to rt_list.o(.bss) for os_rdy
    rt_task.o(i.rt_tsk_delete) refers to rtx_conf_cm.o(.constdata) for os_maxtaskrun
    rt_task.o(i.rt_tsk_pass) refers to rt_list.o(i.rt_get_same_rdy_prio) for rt_get_same_rdy_prio
    rt_task.o(i.rt_tsk_pass) refers to rt_list.o(i.rt_put_prio) for rt_put_prio
    rt_task.o(i.rt_tsk_pass) refers to rt_task.o(i.rt_switch_req) for rt_switch_req
    rt_task.o(i.rt_tsk_pass) refers to rt_task.o(.data) for .data
    rt_task.o(i.rt_tsk_pass) refers to rt_list.o(.bss) for os_rdy
    rt_task.o(i.rt_tsk_prio) refers to rt_list.o(i.rt_put_prio) for rt_put_prio
    rt_task.o(i.rt_tsk_prio) refers to rt_list.o(i.rt_resort_prio) for rt_resort_prio
    rt_task.o(i.rt_tsk_prio) refers to rt_list.o(i.rt_get_first) for rt_get_first
    rt_task.o(i.rt_tsk_prio) refers to rt_task.o(i.rt_dispatch) for rt_dispatch
    rt_task.o(i.rt_tsk_prio) refers to rt_task.o(.data) for .data
    rt_task.o(i.rt_tsk_prio) refers to rtx_conf_cm.o(.constdata) for os_maxtaskrun
    rt_task.o(i.rt_tsk_prio) refers to rtx_conf_cm.o(.bss) for os_active_TCB
    rt_task.o(i.rt_tsk_prio) refers to rt_list.o(.bss) for os_rdy
    rt_task.o(i.rt_tsk_self) refers to rt_task.o(.data) for .data
    rt_mutex.o(i.rt_mut_delete) refers to rt_list.o(i.rt_resort_prio) for rt_resort_prio
    rt_mutex.o(i.rt_mut_delete) refers to rt_list.o(i.rt_get_first) for rt_get_first
    rt_mutex.o(i.rt_mut_delete) refers to hal_cm.o(i.rt_ret_val) for rt_ret_val
    rt_mutex.o(i.rt_mut_delete) refers to rt_list.o(i.rt_rmv_dly) for rt_rmv_dly
    rt_mutex.o(i.rt_mut_delete) refers to rt_list.o(i.rt_put_prio) for rt_put_prio
    rt_mutex.o(i.rt_mut_delete) refers to rt_task.o(i.rt_dispatch) for rt_dispatch
    rt_mutex.o(i.rt_mut_delete) refers to rt_task.o(.data) for os_tsk
    rt_mutex.o(i.rt_mut_delete) refers to rt_list.o(.bss) for os_rdy
    rt_mutex.o(i.rt_mut_release) refers to rt_list.o(i.rt_get_first) for rt_get_first
    rt_mutex.o(i.rt_mut_release) refers to hal_cm.o(i.rt_ret_val) for rt_ret_val
    rt_mutex.o(i.rt_mut_release) refers to rt_list.o(i.rt_rmv_dly) for rt_rmv_dly
    rt_mutex.o(i.rt_mut_release) refers to rt_list.o(i.rt_put_prio) for rt_put_prio
    rt_mutex.o(i.rt_mut_release) refers to rt_task.o(i.rt_dispatch) for rt_dispatch
    rt_mutex.o(i.rt_mut_release) refers to rt_task.o(.data) for os_tsk
    rt_mutex.o(i.rt_mut_release) refers to rt_list.o(.bss) for os_rdy
    rt_mutex.o(i.rt_mut_wait) refers to rt_list.o(i.rt_resort_prio) for rt_resort_prio
    rt_mutex.o(i.rt_mut_wait) refers to rt_list.o(i.rt_put_prio) for rt_put_prio
    rt_mutex.o(i.rt_mut_wait) refers to rt_task.o(i.rt_block) for rt_block
    rt_mutex.o(i.rt_mut_wait) refers to rt_task.o(.data) for os_tsk
    rt_system.o(i.os_tick_init) refers to rtx_conf_cm.o(.constdata) for os_trv
    rt_system.o(i.os_tick_val) refers to rtx_conf_cm.o(.constdata) for os_trv
    rt_system.o(i.rt_pop_req) refers to rt_list.o(i.rt_put_rdy_first) for rt_put_rdy_first
    rt_system.o(i.rt_pop_req) refers to rt_semaphore.o(i.rt_sem_psh) for rt_sem_psh
    rt_system.o(i.rt_pop_req) refers to rt_list.o(i.rt_get_first) for rt_get_first
    rt_system.o(i.rt_pop_req) refers to rt_task.o(i.rt_switch_req) for rt_switch_req
    rt_system.o(i.rt_pop_req) refers to rt_event.o(i.rt_evt_psh) for rt_evt_psh
    rt_system.o(i.rt_pop_req) refers to rt_mailbox.o(i.rt_mbx_psh) for rt_mbx_psh
    rt_system.o(i.rt_pop_req) refers to rt_task.o(.data) for os_tsk
    rt_system.o(i.rt_pop_req) refers to rtx_conf_cm.o(.bss) for os_fifo
    rt_system.o(i.rt_pop_req) refers to rt_list.o(.bss) for os_rdy
    rt_system.o(i.rt_psh_req) refers to rt_system.o(.data) for .data
    rt_system.o(i.rt_resume) refers to rt_list.o(i.rt_put_rdy_first) for rt_put_rdy_first
    rt_system.o(i.rt_resume) refers to rt_list.o(i.rt_dec_dly) for rt_dec_dly
    rt_system.o(i.rt_resume) refers to rt_cmsis.o(i.sysUserTimerUpdate) for sysUserTimerUpdate
    rt_system.o(i.rt_resume) refers to rt_list.o(i.rt_get_first) for rt_get_first
    rt_system.o(i.rt_resume) refers to rt_task.o(i.rt_switch_req) for rt_switch_req
    rt_system.o(i.rt_resume) refers to rt_system.o(i.rt_tsk_unlock) for rt_tsk_unlock
    rt_system.o(i.rt_resume) refers to rt_task.o(.data) for os_tsk
    rt_system.o(i.rt_resume) refers to rt_robin.o(.data) for os_robin
    rt_system.o(i.rt_resume) refers to rt_list.o(.bss) for os_dly
    rt_system.o(i.rt_resume) refers to rt_time.o(.data) for os_time
    rt_system.o(i.rt_stk_check) refers to rtx_conf_cm.o(i.os_error) for os_error
    rt_system.o(i.rt_stk_check) refers to rt_task.o(.data) for os_tsk
    rt_system.o(i.rt_suspend) refers to rt_system.o(i.rt_tsk_lock) for rt_tsk_lock
    rt_system.o(i.rt_suspend) refers to rt_cmsis.o(i.sysUserTimerWakeupTime) for sysUserTimerWakeupTime
    rt_system.o(i.rt_suspend) refers to rt_list.o(.bss) for os_dly
    rt_system.o(i.rt_systick) refers to rt_list.o(i.rt_put_rdy_first) for rt_put_rdy_first
    rt_system.o(i.rt_systick) refers to rt_robin.o(i.rt_chk_robin) for rt_chk_robin
    rt_system.o(i.rt_systick) refers to rt_list.o(i.rt_dec_dly) for rt_dec_dly
    rt_system.o(i.rt_systick) refers to rt_cmsis.o(i.sysTimerTick) for sysTimerTick
    rt_system.o(i.rt_systick) refers to rt_list.o(i.rt_get_first) for rt_get_first
    rt_system.o(i.rt_systick) refers to rt_task.o(i.rt_switch_req) for rt_switch_req
    rt_system.o(i.rt_systick) refers to rt_task.o(.data) for os_tsk
    rt_system.o(i.rt_systick) refers to rt_time.o(.data) for os_time
    rt_system.o(i.rt_systick) refers to rt_list.o(.bss) for os_rdy
    rt_system.o(i.rt_tsk_lock) refers to rt_system.o(.data) for .data
    rt_system.o(i.rt_tsk_unlock) refers to rt_system.o(.data) for .data
    rt_event.o(i.isr_evt_set) refers to rt_list.o(i.rt_psq_enq) for rt_psq_enq
    rt_event.o(i.isr_evt_set) refers to rt_system.o(i.rt_psh_req) for rt_psh_req
    rt_event.o(i.isr_evt_set) refers to rtx_conf_cm.o(.bss) for os_active_TCB
    rt_event.o(i.rt_evt_clr) refers to rtx_conf_cm.o(.bss) for os_active_TCB
    rt_event.o(i.rt_evt_get) refers to rt_task.o(.data) for os_tsk
    rt_event.o(i.rt_evt_psh) refers to rt_list.o(i.rt_rmv_dly) for rt_rmv_dly
    rt_event.o(i.rt_evt_psh) refers to hal_cm.o(i.rt_ret_val2) for rt_ret_val2
    rt_event.o(i.rt_evt_psh) refers to rt_list.o(i.rt_put_prio) for rt_put_prio
    rt_event.o(i.rt_evt_psh) refers to rt_list.o(.bss) for os_rdy
    rt_event.o(i.rt_evt_set) refers to rt_list.o(i.rt_rmv_dly) for rt_rmv_dly
    rt_event.o(i.rt_evt_set) refers to hal_cm.o(i.rt_ret_val2) for rt_ret_val2
    rt_event.o(i.rt_evt_set) refers to rt_task.o(i.rt_dispatch) for rt_dispatch
    rt_event.o(i.rt_evt_set) refers to rtx_conf_cm.o(.bss) for os_active_TCB
    rt_event.o(i.rt_evt_wait) refers to rt_task.o(i.rt_block) for rt_block
    rt_event.o(i.rt_evt_wait) refers to rt_task.o(.data) for os_tsk
    rt_list.o(i.rt_dec_dly) refers to rt_list.o(i.rt_put_prio) for rt_put_prio
    rt_list.o(i.rt_dec_dly) refers to rt_list.o(.bss) for .bss
    rt_list.o(i.rt_dec_dly) refers to rt_time.o(.data) for os_time
    rt_list.o(i.rt_get_same_rdy_prio) refers to rt_list.o(.bss) for .bss
    rt_list.o(i.rt_get_same_rdy_prio) refers to rt_task.o(.data) for os_tsk
    rt_list.o(i.rt_psq_enq) refers to rtx_conf_cm.o(i.os_error) for os_error
    rt_list.o(i.rt_psq_enq) refers to rtx_conf_cm.o(.bss) for os_fifo
    rt_list.o(i.rt_put_dly) refers to rt_list.o(.bss) for .bss
    rt_list.o(i.rt_put_rdy_first) refers to rt_list.o(.bss) for .bss
    rt_list.o(i.rt_resort_prio) refers to rt_list.o(i.rt_rmv_list) for rt_rmv_list
    rt_list.o(i.rt_resort_prio) refers to rt_list.o(i.rt_put_prio) for rt_put_prio
    rt_list.o(i.rt_resort_prio) refers to rt_list.o(.bss) for .bss
    rt_list.o(i.rt_rmv_list) refers to rt_list.o(.bss) for .bss
    rt_mailbox.o(i.isr_mbx_receive) refers to rt_list.o(i.rt_psq_enq) for rt_psq_enq
    rt_mailbox.o(i.isr_mbx_receive) refers to rt_system.o(i.rt_psh_req) for rt_psh_req
    rt_mailbox.o(i.isr_mbx_send) refers to rt_list.o(i.rt_psq_enq) for rt_psq_enq
    rt_mailbox.o(i.isr_mbx_send) refers to rt_system.o(i.rt_psh_req) for rt_psh_req
    rt_mailbox.o(i.rt_mbx_psh) refers to rt_membox.o(i.rt_alloc_box) for rt_alloc_box
    rt_mailbox.o(i.rt_mbx_psh) refers to rt_list.o(i.rt_get_first) for rt_get_first
    rt_mailbox.o(i.rt_mbx_psh) refers to hal_cm.o(i.rt_ret_val) for rt_ret_val
    rt_mailbox.o(i.rt_mbx_psh) refers to rt_list.o(i.rt_rmv_dly) for rt_rmv_dly
    rt_mailbox.o(i.rt_mbx_psh) refers to rt_list.o(i.rt_put_prio) for rt_put_prio
    rt_mailbox.o(i.rt_mbx_psh) refers to hal_cm.o(i.rt_ret_val2) for rt_ret_val2
    rt_mailbox.o(i.rt_mbx_psh) refers to rtx_conf_cm.o(i.os_error) for os_error
    rt_mailbox.o(i.rt_mbx_psh) refers to rt_list.o(.bss) for os_rdy
    rt_mailbox.o(i.rt_mbx_send) refers to rt_list.o(i.rt_put_prio) for rt_put_prio
    rt_mailbox.o(i.rt_mbx_send) refers to rt_list.o(i.rt_get_first) for rt_get_first
    rt_mailbox.o(i.rt_mbx_send) refers to hal_cm.o(i.rt_ret_val2) for rt_ret_val2
    rt_mailbox.o(i.rt_mbx_send) refers to rt_list.o(i.rt_rmv_dly) for rt_rmv_dly
    rt_mailbox.o(i.rt_mbx_send) refers to rt_task.o(i.rt_dispatch) for rt_dispatch
    rt_mailbox.o(i.rt_mbx_send) refers to rt_task.o(i.rt_block) for rt_block
    rt_mailbox.o(i.rt_mbx_send) refers to rt_task.o(.data) for os_tsk
    rt_mailbox.o(i.rt_mbx_wait) refers to rt_list.o(i.rt_get_first) for rt_get_first
    rt_mailbox.o(i.rt_mbx_wait) refers to hal_cm.o(i.rt_ret_val) for rt_ret_val
    rt_mailbox.o(i.rt_mbx_wait) refers to rt_list.o(i.rt_rmv_dly) for rt_rmv_dly
    rt_mailbox.o(i.rt_mbx_wait) refers to rt_task.o(i.rt_dispatch) for rt_dispatch
    rt_mailbox.o(i.rt_mbx_wait) refers to rt_list.o(i.rt_put_prio) for rt_put_prio
    rt_mailbox.o(i.rt_mbx_wait) refers to rt_task.o(i.rt_block) for rt_block
    rt_mailbox.o(i.rt_mbx_wait) refers to rt_task.o(.data) for os_tsk
    rt_semaphore.o(i.isr_sem_send) refers to rt_list.o(i.rt_psq_enq) for rt_psq_enq
    rt_semaphore.o(i.isr_sem_send) refers to rt_system.o(i.rt_psh_req) for rt_psh_req
    rt_semaphore.o(i.rt_sem_delete) refers to rt_list.o(i.rt_get_first) for rt_get_first
    rt_semaphore.o(i.rt_sem_delete) refers to hal_cm.o(i.rt_ret_val) for rt_ret_val
    rt_semaphore.o(i.rt_sem_delete) refers to rt_list.o(i.rt_rmv_dly) for rt_rmv_dly
    rt_semaphore.o(i.rt_sem_delete) refers to rt_list.o(i.rt_put_prio) for rt_put_prio
    rt_semaphore.o(i.rt_sem_delete) refers to rt_task.o(i.rt_dispatch) for rt_dispatch
    rt_semaphore.o(i.rt_sem_delete) refers to rt_list.o(.bss) for os_rdy
    rt_semaphore.o(i.rt_sem_delete) refers to rt_task.o(.data) for os_tsk
    rt_semaphore.o(i.rt_sem_psh) refers to rt_list.o(i.rt_get_first) for rt_get_first
    rt_semaphore.o(i.rt_sem_psh) refers to rt_list.o(i.rt_rmv_dly) for rt_rmv_dly
    rt_semaphore.o(i.rt_sem_psh) refers to hal_cm.o(i.rt_ret_val) for rt_ret_val
    rt_semaphore.o(i.rt_sem_psh) refers to rt_list.o(i.rt_put_prio) for rt_put_prio
    rt_semaphore.o(i.rt_sem_psh) refers to rt_list.o(.bss) for os_rdy
    rt_semaphore.o(i.rt_sem_send) refers to rt_list.o(i.rt_get_first) for rt_get_first
    rt_semaphore.o(i.rt_sem_send) refers to hal_cm.o(i.rt_ret_val) for rt_ret_val
    rt_semaphore.o(i.rt_sem_send) refers to rt_list.o(i.rt_rmv_dly) for rt_rmv_dly
    rt_semaphore.o(i.rt_sem_send) refers to rt_task.o(i.rt_dispatch) for rt_dispatch
    rt_semaphore.o(i.rt_sem_wait) refers to rt_list.o(i.rt_put_prio) for rt_put_prio
    rt_semaphore.o(i.rt_sem_wait) refers to rt_task.o(i.rt_block) for rt_block
    rt_semaphore.o(i.rt_sem_wait) refers to rt_task.o(.data) for os_tsk
    rt_time.o(i.rt_dly_wait) refers to rt_task.o(i.rt_block) for rt_block
    rt_time.o(i.rt_itv_set) refers to rt_task.o(.data) for os_tsk
    rt_time.o(i.rt_itv_set) refers to rt_time.o(.data) for .data
    rt_time.o(i.rt_itv_wait) refers to rt_task.o(i.rt_block) for rt_block
    rt_time.o(i.rt_itv_wait) refers to rt_task.o(.data) for os_tsk
    rt_time.o(i.rt_itv_wait) refers to rt_time.o(.data) for .data
    rt_time.o(i.rt_time_get) refers to rt_time.o(.data) for .data
    rt_robin.o(i.rt_chk_robin) refers to rt_list.o(i.rt_get_first) for rt_get_first
    rt_robin.o(i.rt_chk_robin) refers to rt_list.o(i.rt_put_prio) for rt_put_prio
    rt_robin.o(i.rt_chk_robin) refers to rt_robin.o(.data) for .data
    rt_robin.o(i.rt_chk_robin) refers to rt_list.o(.bss) for os_rdy
    rt_robin.o(i.rt_chk_robin) refers to rt_time.o(.data) for os_time
    rt_robin.o(i.rt_init_robin) refers to rt_robin.o(.data) for .data
    rt_robin.o(i.rt_init_robin) refers to rtx_conf_cm.o(.constdata) for os_rrobin
    rt_membox.o(i._calloc_box) refers to hal_cm4.o(.emb_text) for _alloc_box
    hal_cm.o(i.dbg_init) refers to hal_cm.o(.data) for .data
    hal_cm.o(i.rt_init_stack) refers to rtx_conf_cm.o(.constdata) for os_stackinfo
    hal_cm.o(i.rt_ret_val) refers to hal_cm.o(i.rt_ret_regs) for rt_ret_regs
    hal_cm.o(i.rt_ret_val2) refers to hal_cm.o(i.rt_ret_regs) for rt_ret_regs
    hal_cm4.o(.emb_text) refers to rtx_conf_cm.o(.constdata) for os_flags
    hal_cm4.o(.emb_text) refers to rt_membox.o(i.rt_alloc_box) for rt_alloc_box
    hal_cm4.o(.emb_text) refers to rt_membox.o(i.rt_free_box) for rt_free_box
    hal_cm4.o(.emb_text) refers to rt_system.o(i.rt_stk_check) for rt_stk_check
    hal_cm4.o(.emb_text) refers to rt_task.o(.data) for os_tsk
    hal_cm4.o(.emb_text) refers to svc_table.o(SVC_TABLE) for SVC_Count
    hal_cm4.o(.emb_text) refers to rt_system.o(i.rt_pop_req) for rt_pop_req
    hal_cm4.o(.emb_text) refers to rt_system.o(i.rt_systick) for rt_systick
    hal_cm4.o(.emb_text) refers to rt_system.o(i.os_tick_irqack) for os_tick_irqack
    libspace.o(.text) refers to libspace.o(.bss) for __libspace_start
    __2sprintf.o(.text) refers to _printf_char_common.o(.text) for _printf_char_common
    __2sprintf.o(.text) refers to _sputc.o(.text) for _sputc
    noretval__2sprintf.o(.text) refers to _printf_char_common.o(.text) for _printf_char_common
    noretval__2sprintf.o(.text) refers to _sputc.o(.text) for _sputc
    __printf.o(.text) refers to _printf_percent.o(.ARM.Collect$$_printf_percent$$00000000) for _printf_percent
    _printf_str.o(.text) refers (Special) to _printf_char.o(.text) for _printf_cs_common
    _printf_str.o(.text) refers (Weak) to _printf_pad.o(.text) for _printf_pre_padding
    _printf_str.o(.text) refers (Weak) to _printf_pad.o(.text) for _printf_post_padding
    _printf_dec.o(.text) refers to _printf_intcommon.o(.text) for _printf_int_common
    __printf_flags.o(.text) refers to _printf_percent.o(.ARM.Collect$$_printf_percent$$00000000) for _printf_percent
    __printf_flags.o(.text) refers to __printf_flags.o(.constdata) for .constdata
    __printf_ss.o(.text) refers to _printf_percent.o(.ARM.Collect$$_printf_percent$$00000000) for _printf_percent
    __printf_flags_ss.o(.text) refers to _printf_percent.o(.ARM.Collect$$_printf_percent$$00000000) for _printf_percent
    __printf_flags_ss.o(.text) refers to __printf_flags_ss.o(.constdata) for .constdata
    __printf_wp.o(.text) refers to __printf_wp.o(i._is_digit) for _is_digit
    __printf_wp.o(.text) refers to _printf_percent.o(.ARM.Collect$$_printf_percent$$00000000) for _printf_percent
    __printf_flags_wp.o(.text) refers to __printf_wp.o(i._is_digit) for _is_digit
    __printf_flags_wp.o(.text) refers to _printf_percent.o(.ARM.Collect$$_printf_percent$$00000000) for _printf_percent
    __printf_flags_wp.o(.text) refers to __printf_flags_wp.o(.constdata) for .constdata
    __printf_ss_wp.o(.text) refers to __printf_wp.o(i._is_digit) for _is_digit
    __printf_ss_wp.o(.text) refers to _printf_percent.o(.ARM.Collect$$_printf_percent$$00000000) for _printf_percent
    __printf_flags_ss_wp.o(.text) refers to __printf_wp.o(i._is_digit) for _is_digit
    __printf_flags_ss_wp.o(.text) refers to _printf_percent.o(.ARM.Collect$$_printf_percent$$00000000) for _printf_percent
    __printf_flags_ss_wp.o(.text) refers to __printf_flags_ss_wp.o(.constdata) for .constdata
    _printf_s.o(.ARM.Collect$$_printf_percent$$00000014) refers (Weak) to _printf_char.o(.text) for _printf_string
    _printf_d.o(.ARM.Collect$$_printf_percent$$00000009) refers (Weak) to _printf_dec.o(.text) for _printf_int_dec
    _printf_percent.o(.ARM.Collect$$_printf_percent$$00000000) refers (Special) to _printf_percent_end.o(.ARM.Collect$$_printf_percent$$00000017) for _printf_percent_end
    exit.o(.text) refers to rtexit.o(.ARM.Collect$$rtexit$$00000000) for __rt_exit
    __main.o(!!!main) refers to __rtentry.o(.ARM.Collect$$rtentry$$00000000) for __rt_entry
    dflt_clz.o(x$fpl$dfltu) refers (Special) to usenofp.o(x$fpl$usenofp) for __I$use$fp
    dflt_clz.o(x$fpl$dflt) refers (Special) to usenofp.o(x$fpl$usenofp) for __I$use$fp
    dflt_clz.o(x$fpl$dfltn) refers (Special) to usenofp.o(x$fpl$usenofp) for __I$use$fp
    dleqf.o(x$fpl$dleqf) refers (Special) to usenofp.o(x$fpl$usenofp) for __I$use$fp
    dleqf.o(x$fpl$dleqf) refers to dnaninf.o(x$fpl$dnaninf) for __fpl_dnaninf
    dleqf.o(x$fpl$dleqf) refers to dcmpi.o(x$fpl$dcmpinf) for __fpl_dcmp_Inf
    drleqf.o(x$fpl$drleqf) refers (Special) to usenofp.o(x$fpl$usenofp) for __I$use$fp
    drleqf.o(x$fpl$drleqf) refers to dleqf.o(x$fpl$dleqf) for __fpl_dcmple_InfNaN
    __rtentry.o(.ARM.Collect$$rtentry$$00000000) refers (Special) to __rtentry2.o(.ARM.Collect$$rtentry$$0000000A) for __rt_entry_li
    __rtentry.o(.ARM.Collect$$rtentry$$00000000) refers (Special) to __rtentry2.o(.ARM.Collect$$rtentry$$0000000D) for __rt_entry_main
    __rtentry.o(.ARM.Collect$$rtentry$$00000000) refers (Special) to __rtentry2.o(.ARM.Collect$$rtentry$$0000000B) for __rt_entry_postli_1
    __rtentry.o(.ARM.Collect$$rtentry$$00000000) refers (Special) to __rtentry2.o(.ARM.Collect$$rtentry$$00000009) for __rt_entry_postsh_1
    __rtentry.o(.ARM.Collect$$rtentry$$00000000) refers (Special) to __rtentry2.o(.ARM.Collect$$rtentry$$00000002) for __rt_entry_presh_1
    __rtentry.o(.ARM.Collect$$rtentry$$00000000) refers (Special) to __rtentry4.o(.ARM.Collect$$rtentry$$00000004) for __rt_entry_sh
    rtexit.o(.ARM.Collect$$rtexit$$00000000) refers (Special) to rtexit2.o(.ARM.Collect$$rtexit$$00000004) for __rt_exit_exit
    rtexit.o(.ARM.Collect$$rtexit$$00000000) refers (Special) to rtexit2.o(.ARM.Collect$$rtexit$$00000003) for __rt_exit_ls
    rtexit.o(.ARM.Collect$$rtexit$$00000000) refers (Special) to rtexit2.o(.ARM.Collect$$rtexit$$00000002) for __rt_exit_prels_1
    rtexit.o(.ARM.exidx) refers (Special) to rtexit2.o(.ARM.Collect$$rtexit$$00000004) for __rt_exit_exit
    rtexit.o(.ARM.exidx) refers (Special) to rtexit2.o(.ARM.Collect$$rtexit$$00000003) for __rt_exit_ls
    rtexit.o(.ARM.exidx) refers (Special) to rtexit2.o(.ARM.Collect$$rtexit$$00000002) for __rt_exit_prels_1
    rtexit.o(.ARM.exidx) refers to rtexit.o(.ARM.Collect$$rtexit$$00000000) for .ARM.Collect$$rtexit$$00000000
    aeabi_ldiv0_sigfpe.o(.text) refers to rt_div0.o(.text) for __rt_div0
    _printf_intcommon.o(.text) refers (Weak) to _printf_pad.o(.text) for _printf_pre_padding
    _printf_intcommon.o(.text) refers (Weak) to _printf_pad.o(.text) for _printf_pre_padding
    _printf_intcommon.o(.text) refers (Weak) to _printf_pad.o(.text) for _printf_post_padding
    _printf_char_common.o(.text) refers to __printf_flags_wp.o(.text) for __printf
    _printf_char.o(.text) refers (Weak) to _printf_str.o(.text) for _printf_str
    dcmpi.o(x$fpl$dcmpinf) refers (Special) to usenofp.o(x$fpl$usenofp) for __I$use$fp
    dnaninf.o(x$fpl$dnaninf) refers (Special) to usenofp.o(x$fpl$usenofp) for __I$use$fp
    __rtentry2.o(.ARM.Collect$$rtentry$$00000008) refers to boardinit2.o(.text) for _platform_post_stackheap_init
    __rtentry2.o(.ARM.Collect$$rtentry$$0000000A) refers to libinit.o(.ARM.Collect$$libinit$$00000000) for __rt_lib_init
    __rtentry2.o(.ARM.Collect$$rtentry$$0000000B) refers to rtx_conf_cm.o(.emb_text) for _platform_post_lib_init
    __rtentry2.o(.ARM.Collect$$rtentry$$0000000D) refers to main.o(i.main) for main
    __rtentry2.o(.ARM.Collect$$rtentry$$0000000D) refers to exit.o(.text) for exit
    __rtentry2.o(.ARM.exidx) refers to __rtentry2.o(.ARM.Collect$$rtentry$$00000001) for .ARM.Collect$$rtentry$$00000001
    __rtentry2.o(.ARM.exidx) refers to __rtentry2.o(.ARM.Collect$$rtentry$$00000008) for .ARM.Collect$$rtentry$$00000008
    __rtentry2.o(.ARM.exidx) refers to __rtentry2.o(.ARM.Collect$$rtentry$$0000000A) for .ARM.Collect$$rtentry$$0000000A
    __rtentry2.o(.ARM.exidx) refers to __rtentry2.o(.ARM.Collect$$rtentry$$0000000B) for .ARM.Collect$$rtentry$$0000000B
    __rtentry2.o(.ARM.exidx) refers to __rtentry2.o(.ARM.Collect$$rtentry$$0000000D) for .ARM.Collect$$rtentry$$0000000D
    __rtentry4.o(.ARM.Collect$$rtentry$$00000004) refers to sys_stackheap_outer.o(.text) for __user_setup_stackheap
    __rtentry4.o(.ARM.exidx) refers to __rtentry4.o(.ARM.Collect$$rtentry$$00000004) for .ARM.Collect$$rtentry$$00000004
    rtexit2.o(.ARM.Collect$$rtexit$$00000003) refers to libshutdown.o(.ARM.Collect$$libshutdown$$00000000) for __rt_lib_shutdown
    rtexit2.o(.ARM.Collect$$rtexit$$00000004) refers to sys_exit.o(.text) for _sys_exit
    rtexit2.o(.ARM.exidx) refers to rtexit2.o(.ARM.Collect$$rtexit$$00000001) for .ARM.Collect$$rtexit$$00000001
    rtexit2.o(.ARM.exidx) refers to rtexit2.o(.ARM.Collect$$rtexit$$00000003) for .ARM.Collect$$rtexit$$00000003
    rtexit2.o(.ARM.exidx) refers to rtexit2.o(.ARM.Collect$$rtexit$$00000004) for .ARM.Collect$$rtexit$$00000004
    rt_div0.o(.text) refers to defsig_fpe_outer.o(.text) for __rt_SIGFPE
    sys_exit.o(.text) refers (Special) to use_no_semi.o(.text) for __I$use$semihosting
    sys_exit.o(.text) refers (Special) to indicate_semi.o(.text) for __semihosting_library_function
    sys_stackheap_outer.o(.text) refers to libspace.o(.text) for __user_perproc_libspace
    sys_stackheap_outer.o(.text) refers to startup_stm32f407xx.o(.text) for __user_initial_stackheap
    defsig_fpe_outer.o(.text) refers to defsig_fpe_inner.o(.text) for __rt_SIGFPE_inner
    defsig_fpe_outer.o(.text) refers to defsig_exit.o(.text) for __sig_exit
    defsig_fpe_formal.o(.text) refers to rt_raise.o(.text) for __rt_raise
    libinit.o(.ARM.Collect$$libinit$$00000000) refers (Special) to libinit2.o(.ARM.Collect$$libinit$$0000002E) for __rt_lib_init_alloca_1
    libinit.o(.ARM.Collect$$libinit$$00000000) refers (Special) to libinit2.o(.ARM.Collect$$libinit$$0000002C) for __rt_lib_init_argv_1
    libinit.o(.ARM.Collect$$libinit$$00000000) refers (Special) to libinit2.o(.ARM.Collect$$libinit$$0000001B) for __rt_lib_init_atexit_1
    libinit.o(.ARM.Collect$$libinit$$00000000) refers (Special) to libinit2.o(.ARM.Collect$$libinit$$00000021) for __rt_lib_init_clock_1
    libinit.o(.ARM.Collect$$libinit$$00000000) refers (Special) to libinit2.o(.ARM.Collect$$libinit$$00000032) for __rt_lib_init_cpp_1
    libinit.o(.ARM.Collect$$libinit$$00000000) refers (Special) to libinit2.o(.ARM.Collect$$libinit$$00000030) for __rt_lib_init_exceptions_1
    libinit.o(.ARM.Collect$$libinit$$00000000) refers (Special) to libinit2.o(.ARM.Collect$$libinit$$00000001) for __rt_lib_init_fp_1
    libinit.o(.ARM.Collect$$libinit$$00000000) refers (Special) to libinit2.o(.ARM.Collect$$libinit$$0000001F) for __rt_lib_init_fp_trap_1
    libinit.o(.ARM.Collect$$libinit$$00000000) refers (Special) to libinit2.o(.ARM.Collect$$libinit$$00000023) for __rt_lib_init_getenv_1
    libinit.o(.ARM.Collect$$libinit$$00000000) refers (Special) to libinit2.o(.ARM.Collect$$libinit$$0000000A) for __rt_lib_init_heap_1
    libinit.o(.ARM.Collect$$libinit$$00000000) refers (Special) to libinit2.o(.ARM.Collect$$libinit$$00000011) for __rt_lib_init_lc_collate_1
    libinit.o(.ARM.Collect$$libinit$$00000000) refers (Special) to libinit2.o(.ARM.Collect$$libinit$$00000013) for __rt_lib_init_lc_ctype_1
    libinit.o(.ARM.Collect$$libinit$$00000000) refers (Special) to libinit2.o(.ARM.Collect$$libinit$$00000015) for __rt_lib_init_lc_monetary_1
    libinit.o(.ARM.Collect$$libinit$$00000000) refers (Special) to libinit2.o(.ARM.Collect$$libinit$$00000017) for __rt_lib_init_lc_numeric_1
    libinit.o(.ARM.Collect$$libinit$$00000000) refers (Special) to libinit2.o(.ARM.Collect$$libinit$$00000019) for __rt_lib_init_lc_time_1
    libinit.o(.ARM.Collect$$libinit$$00000000) refers (Special) to libinit2.o(.ARM.Collect$$libinit$$00000004) for __rt_lib_init_preinit_1
    libinit.o(.ARM.Collect$$libinit$$00000000) refers (Special) to libinit2.o(.ARM.Collect$$libinit$$0000000E) for __rt_lib_init_rand_1
    libinit.o(.ARM.Collect$$libinit$$00000000) refers (Special) to libinit2.o(.ARM.Collect$$libinit$$00000033) for __rt_lib_init_return
    libinit.o(.ARM.Collect$$libinit$$00000000) refers (Special) to libinit2.o(.ARM.Collect$$libinit$$0000001D) for __rt_lib_init_signal_1
    libinit.o(.ARM.Collect$$libinit$$00000000) refers (Special) to libinit2.o(.ARM.Collect$$libinit$$00000025) for __rt_lib_init_stdio_1
    libinit.o(.ARM.Collect$$libinit$$00000000) refers (Special) to libinit2.o(.ARM.Collect$$libinit$$0000000C) for __rt_lib_init_user_alloc_1
    libshutdown.o(.ARM.Collect$$libshutdown$$00000000) refers (Special) to libshutdown2.o(.ARM.Collect$$libshutdown$$00000002) for __rt_lib_shutdown_cpp_1
    libshutdown.o(.ARM.Collect$$libshutdown$$00000000) refers (Special) to libshutdown2.o(.ARM.Collect$$libshutdown$$00000007) for __rt_lib_shutdown_fp_trap_1
    libshutdown.o(.ARM.Collect$$libshutdown$$00000000) refers (Special) to libshutdown2.o(.ARM.Collect$$libshutdown$$0000000F) for __rt_lib_shutdown_heap_1
    libshutdown.o(.ARM.Collect$$libshutdown$$00000000) refers (Special) to libshutdown2.o(.ARM.Collect$$libshutdown$$00000010) for __rt_lib_shutdown_return
    libshutdown.o(.ARM.Collect$$libshutdown$$00000000) refers (Special) to libshutdown2.o(.ARM.Collect$$libshutdown$$0000000A) for __rt_lib_shutdown_signal_1
    libshutdown.o(.ARM.Collect$$libshutdown$$00000000) refers (Special) to libshutdown2.o(.ARM.Collect$$libshutdown$$00000004) for __rt_lib_shutdown_stdio_1
    libshutdown.o(.ARM.Collect$$libshutdown$$00000000) refers (Special) to libshutdown2.o(.ARM.Collect$$libshutdown$$0000000C) for __rt_lib_shutdown_user_alloc_1
    rt_raise.o(.text) refers to __raise.o(.text) for __raise
    rt_raise.o(.text) refers to sys_exit.o(.text) for _sys_exit
    defsig_exit.o(.text) refers to sys_exit.o(.text) for _sys_exit
    defsig_fpe_inner.o(.text) refers to defsig_general.o(.text) for __default_signal_display
    libinit2.o(.ARM.Collect$$libinit$$00000001) refers to fpinit.o(x$fpl$fpinit) for _fp_init
    libinit2.o(.ARM.Collect$$libinit$$00000010) refers to libinit2.o(.ARM.Collect$$libinit$$0000000F) for .ARM.Collect$$libinit$$0000000F
    libinit2.o(.ARM.Collect$$libinit$$00000012) refers to libinit2.o(.ARM.Collect$$libinit$$0000000F) for .ARM.Collect$$libinit$$0000000F
    libinit2.o(.ARM.Collect$$libinit$$00000014) refers to libinit2.o(.ARM.Collect$$libinit$$0000000F) for .ARM.Collect$$libinit$$0000000F
    libinit2.o(.ARM.Collect$$libinit$$00000016) refers to libinit2.o(.ARM.Collect$$libinit$$0000000F) for .ARM.Collect$$libinit$$0000000F
    libinit2.o(.ARM.Collect$$libinit$$00000018) refers to libinit2.o(.ARM.Collect$$libinit$$0000000F) for .ARM.Collect$$libinit$$0000000F
    libinit2.o(.ARM.Collect$$libinit$$00000026) refers to argv_veneer.o(.emb_text) for __ARM_argv_veneer
    libinit2.o(.ARM.Collect$$libinit$$00000027) refers to argv_veneer.o(.emb_text) for __ARM_argv_veneer
    __raise.o(.text) refers to defsig.o(CL$$defsig) for __default_signal_handler
    defsig_general.o(.text) refers to sys_wrch.o(.text) for _ttywrch
    argv_veneer.o(.emb_text) refers to no_argv.o(.text) for __ARM_get_argv
    sys_wrch.o(.text) refers (Special) to use_no_semi.o(.text) for __I$use$semihosting
    sys_wrch.o(.text) refers (Special) to indicate_semi.o(.text) for __semihosting_library_function
    defsig.o(CL$$defsig) refers to defsig_fpe_inner.o(.text) for __rt_SIGFPE_inner
    defsig.o(CL$$defsig) refers to defsig_rtmem_inner.o(.text) for __rt_SIGRTMEM_inner
    _get_argv_nomalloc.o(.text) refers (Special) to hrguard.o(.text) for __heap_region$guard
    _get_argv_nomalloc.o(.text) refers to defsig_rtmem_outer.o(.text) for __rt_SIGRTMEM
    _get_argv_nomalloc.o(.text) refers to sys_command.o(.text) for _sys_command_string
    sys_command.o(.text) refers (Special) to use_no_semi.o(.text) for __I$use$semihosting
    sys_command.o(.text) refers (Special) to indicate_semi.o(.text) for __semihosting_library_function
    defsig_abrt_inner.o(.text) refers to defsig_general.o(.text) for __default_signal_display
    defsig_rtred_inner.o(.text) refers to defsig_general.o(.text) for __default_signal_display
    defsig_rtmem_inner.o(.text) refers to defsig_general.o(.text) for __default_signal_display
    defsig_rtmem_outer.o(.text) refers to defsig_rtmem_inner.o(.text) for __rt_SIGRTMEM_inner
    defsig_rtmem_outer.o(.text) refers to defsig_exit.o(.text) for __sig_exit
    defsig_rtmem_formal.o(.text) refers to rt_raise.o(.text) for __rt_raise
    defsig_stak_inner.o(.text) refers to defsig_general.o(.text) for __default_signal_display
    defsig_pvfn_inner.o(.text) refers to defsig_general.o(.text) for __default_signal_display
    defsig_cppl_inner.o(.text) refers to defsig_general.o(.text) for __default_signal_display
    defsig_segv_inner.o(.text) refers to defsig_general.o(.text) for __default_signal_display
    defsig_other.o(.text) refers to defsig_general.o(.text) for __default_signal_display


==============================================================================

Removing Unused input sections from the image.

    Removing main.o(.rev16_text), (4 bytes).
    Removing main.o(.revsh_text), (4 bytes).
    Removing main.o(.rrx_text), (6 bytes).
    Removing main.o(i.USART_RX_OUT), (6 bytes).
    Removing timer.o(.rev16_text), (4 bytes).
    Removing timer.o(.revsh_text), (4 bytes).
    Removing timer.o(.rrx_text), (6 bytes).
    Removing misc.o(.rev16_text), (4 bytes).
    Removing misc.o(.revsh_text), (4 bytes).
    Removing misc.o(.rrx_text), (6 bytes).
    Removing misc.o(i.NVIC_PriorityGroupConfig), (20 bytes).
    Removing misc.o(i.NVIC_SetVectorTable), (20 bytes).
    Removing misc.o(i.NVIC_SystemLPConfig), (32 bytes).
    Removing misc.o(i.SysTick_CLKSourceConfig), (40 bytes).
    Removing stm32f4xx_adc.o(.rev16_text), (4 bytes).
    Removing stm32f4xx_adc.o(.revsh_text), (4 bytes).
    Removing stm32f4xx_adc.o(.rrx_text), (6 bytes).
    Removing stm32f4xx_adc.o(i.ADC_AnalogWatchdogCmd), (20 bytes).
    Removing stm32f4xx_adc.o(i.ADC_AnalogWatchdogSingleChannelConfig), (16 bytes).
    Removing stm32f4xx_adc.o(i.ADC_AnalogWatchdogThresholdsConfig), (6 bytes).
    Removing stm32f4xx_adc.o(i.ADC_AutoInjectedConvCmd), (22 bytes).
    Removing stm32f4xx_adc.o(i.ADC_ClearFlag), (6 bytes).
    Removing stm32f4xx_adc.o(i.ADC_ClearITPendingBit), (10 bytes).
    Removing stm32f4xx_adc.o(i.ADC_ContinuousModeCmd), (22 bytes).
    Removing stm32f4xx_adc.o(i.ADC_DMACmd), (22 bytes).
    Removing stm32f4xx_adc.o(i.ADC_DMARequestAfterLastTransferCmd), (22 bytes).
    Removing stm32f4xx_adc.o(i.ADC_DeInit), (22 bytes).
    Removing stm32f4xx_adc.o(i.ADC_DiscModeChannelCountConfig), (24 bytes).
    Removing stm32f4xx_adc.o(i.ADC_DiscModeCmd), (22 bytes).
    Removing stm32f4xx_adc.o(i.ADC_EOCOnEachRegularChannelCmd), (22 bytes).
    Removing stm32f4xx_adc.o(i.ADC_ExternalTrigInjectedConvConfig), (16 bytes).
    Removing stm32f4xx_adc.o(i.ADC_ExternalTrigInjectedConvEdgeConfig), (16 bytes).
    Removing stm32f4xx_adc.o(i.ADC_GetITStatus), (38 bytes).
    Removing stm32f4xx_adc.o(i.ADC_GetInjectedConversionValue), (28 bytes).
    Removing stm32f4xx_adc.o(i.ADC_GetMultiModeConversionValue), (12 bytes).
    Removing stm32f4xx_adc.o(i.ADC_GetSoftwareStartConvStatus), (20 bytes).
    Removing stm32f4xx_adc.o(i.ADC_GetSoftwareStartInjectedConvCmdStatus), (20 bytes).
    Removing stm32f4xx_adc.o(i.ADC_ITConfig), (32 bytes).
    Removing stm32f4xx_adc.o(i.ADC_InjectedChannelConfig), (130 bytes).
    Removing stm32f4xx_adc.o(i.ADC_InjectedDiscModeCmd), (22 bytes).
    Removing stm32f4xx_adc.o(i.ADC_InjectedSequencerLengthConfig), (24 bytes).
    Removing stm32f4xx_adc.o(i.ADC_MultiModeDMARequestAfterLastTransferCmd), (44 bytes).
    Removing stm32f4xx_adc.o(i.ADC_SetInjectedOffset), (20 bytes).
    Removing stm32f4xx_adc.o(i.ADC_SoftwareStartInjectedConv), (10 bytes).
    Removing stm32f4xx_adc.o(i.ADC_TempSensorVrefintCmd), (44 bytes).
    Removing stm32f4xx_adc.o(i.ADC_VBATCmd), (44 bytes).
    Removing stm32f4xx_fsmc.o(.rev16_text), (4 bytes).
    Removing stm32f4xx_fsmc.o(.revsh_text), (4 bytes).
    Removing stm32f4xx_fsmc.o(.rrx_text), (6 bytes).
    Removing stm32f4xx_fsmc.o(i.FSMC_ClearFlag), (64 bytes).
    Removing stm32f4xx_fsmc.o(i.FSMC_ClearITPendingBit), (72 bytes).
    Removing stm32f4xx_fsmc.o(i.FSMC_GetECC), (28 bytes).
    Removing stm32f4xx_fsmc.o(i.FSMC_GetFlagStatus), (56 bytes).
    Removing stm32f4xx_fsmc.o(i.FSMC_GetITStatus), (68 bytes).
    Removing stm32f4xx_fsmc.o(i.FSMC_ITConfig), (128 bytes).
    Removing stm32f4xx_fsmc.o(i.FSMC_NANDCmd), (92 bytes).
    Removing stm32f4xx_fsmc.o(i.FSMC_NANDDeInit), (68 bytes).
    Removing stm32f4xx_fsmc.o(i.FSMC_NANDECCCmd), (92 bytes).
    Removing stm32f4xx_fsmc.o(i.FSMC_NANDInit), (136 bytes).
    Removing stm32f4xx_fsmc.o(i.FSMC_NANDStructInit), (54 bytes).
    Removing stm32f4xx_fsmc.o(i.FSMC_NORSRAMDeInit), (54 bytes).
    Removing stm32f4xx_fsmc.o(i.FSMC_NORSRAMStructInit), (114 bytes).
    Removing stm32f4xx_fsmc.o(i.FSMC_PCCARDCmd), (48 bytes).
    Removing stm32f4xx_fsmc.o(i.FSMC_PCCARDDeInit), (40 bytes).
    Removing stm32f4xx_fsmc.o(i.FSMC_PCCARDInit), (132 bytes).
    Removing stm32f4xx_fsmc.o(i.FSMC_PCCARDStructInit), (60 bytes).
    Removing stm32f4xx_gpio.o(.rev16_text), (4 bytes).
    Removing stm32f4xx_gpio.o(.revsh_text), (4 bytes).
    Removing stm32f4xx_gpio.o(.rrx_text), (6 bytes).
    Removing stm32f4xx_gpio.o(i.GPIO_DeInit), (256 bytes).
    Removing stm32f4xx_gpio.o(i.GPIO_PinLockConfig), (34 bytes).
    Removing stm32f4xx_gpio.o(i.GPIO_ReadInputData), (8 bytes).
    Removing stm32f4xx_gpio.o(i.GPIO_ReadOutputData), (8 bytes).
    Removing stm32f4xx_gpio.o(i.GPIO_ReadOutputDataBit), (18 bytes).
    Removing stm32f4xx_gpio.o(i.GPIO_ToggleBits), (8 bytes).
    Removing stm32f4xx_gpio.o(i.GPIO_Write), (4 bytes).
    Removing stm32f4xx_i2c.o(.rev16_text), (4 bytes).
    Removing stm32f4xx_i2c.o(.revsh_text), (4 bytes).
    Removing stm32f4xx_i2c.o(.rrx_text), (6 bytes).
    Removing stm32f4xx_i2c.o(i.I2C_ARPCmd), (24 bytes).
    Removing stm32f4xx_i2c.o(i.I2C_AcknowledgeConfig), (24 bytes).
    Removing stm32f4xx_i2c.o(i.I2C_CalculatePEC), (24 bytes).
    Removing stm32f4xx_i2c.o(i.I2C_ClearFlag), (12 bytes).
    Removing stm32f4xx_i2c.o(i.I2C_ClearITPendingBit), (12 bytes).
    Removing stm32f4xx_i2c.o(i.I2C_Cmd), (24 bytes).
    Removing stm32f4xx_i2c.o(i.I2C_DMACmd), (24 bytes).
    Removing stm32f4xx_i2c.o(i.I2C_DMALastTransferCmd), (24 bytes).
    Removing stm32f4xx_i2c.o(i.I2C_DeInit), (96 bytes).
    Removing stm32f4xx_i2c.o(i.I2C_DualAddressCmd), (24 bytes).
    Removing stm32f4xx_i2c.o(i.I2C_FastModeDutyCycleConfig), (28 bytes).
    Removing stm32f4xx_i2c.o(i.I2C_GeneralCallCmd), (24 bytes).
    Removing stm32f4xx_i2c.o(i.I2C_GenerateSTART), (24 bytes).
    Removing stm32f4xx_i2c.o(i.I2C_GenerateSTOP), (24 bytes).
    Removing stm32f4xx_i2c.o(i.I2C_GetFlagStatus), (58 bytes).
    Removing stm32f4xx_i2c.o(i.I2C_GetITStatus), (38 bytes).
    Removing stm32f4xx_i2c.o(i.I2C_GetLastEvent), (26 bytes).
    Removing stm32f4xx_i2c.o(i.I2C_GetPEC), (8 bytes).
    Removing stm32f4xx_i2c.o(i.I2C_ITConfig), (18 bytes).
    Removing stm32f4xx_i2c.o(i.I2C_NACKPositionConfig), (28 bytes).
    Removing stm32f4xx_i2c.o(i.I2C_OwnAddress2Config), (22 bytes).
    Removing stm32f4xx_i2c.o(i.I2C_PECPositionConfig), (28 bytes).
    Removing stm32f4xx_i2c.o(i.I2C_ReadRegister), (22 bytes).
    Removing stm32f4xx_i2c.o(i.I2C_ReceiveData), (8 bytes).
    Removing stm32f4xx_i2c.o(i.I2C_SMBusAlertConfig), (28 bytes).
    Removing stm32f4xx_i2c.o(i.I2C_Send7bitAddress), (16 bytes).
    Removing stm32f4xx_i2c.o(i.I2C_SendData), (4 bytes).
    Removing stm32f4xx_i2c.o(i.I2C_SoftwareResetCmd), (22 bytes).
    Removing stm32f4xx_i2c.o(i.I2C_StretchClockCmd), (24 bytes).
    Removing stm32f4xx_i2c.o(i.I2C_StructInit), (30 bytes).
    Removing stm32f4xx_i2c.o(i.I2C_TransmitPEC), (24 bytes).
    Removing stm32f4xx_rcc.o(.rev16_text), (4 bytes).
    Removing stm32f4xx_rcc.o(.revsh_text), (4 bytes).
    Removing stm32f4xx_rcc.o(.rrx_text), (6 bytes).
    Removing stm32f4xx_rcc.o(i.RCC_AHB1PeriphClockLPModeCmd), (32 bytes).
    Removing stm32f4xx_rcc.o(i.RCC_AHB1PeriphResetCmd), (32 bytes).
    Removing stm32f4xx_rcc.o(i.RCC_AHB2PeriphClockCmd), (32 bytes).
    Removing stm32f4xx_rcc.o(i.RCC_AHB2PeriphClockLPModeCmd), (32 bytes).
    Removing stm32f4xx_rcc.o(i.RCC_AHB2PeriphResetCmd), (32 bytes).
    Removing stm32f4xx_rcc.o(i.RCC_AHB3PeriphClockLPModeCmd), (32 bytes).
    Removing stm32f4xx_rcc.o(i.RCC_AHB3PeriphResetCmd), (32 bytes).
    Removing stm32f4xx_rcc.o(i.RCC_APB1PeriphClockCmd), (32 bytes).
    Removing stm32f4xx_rcc.o(i.RCC_APB1PeriphClockLPModeCmd), (32 bytes).
    Removing stm32f4xx_rcc.o(i.RCC_APB1PeriphResetCmd), (32 bytes).
    Removing stm32f4xx_rcc.o(i.RCC_APB2PeriphClockLPModeCmd), (32 bytes).
    Removing stm32f4xx_rcc.o(i.RCC_APB2PeriphResetCmd), (32 bytes).
    Removing stm32f4xx_rcc.o(i.RCC_AdjustHSICalibrationValue), (24 bytes).
    Removing stm32f4xx_rcc.o(i.RCC_BackupResetCmd), (12 bytes).
    Removing stm32f4xx_rcc.o(i.RCC_ClearFlag), (20 bytes).
    Removing stm32f4xx_rcc.o(i.RCC_ClearITPendingBit), (12 bytes).
    Removing stm32f4xx_rcc.o(i.RCC_ClockSecuritySystemCmd), (12 bytes).
    Removing stm32f4xx_rcc.o(i.RCC_DeInit), (72 bytes).
    Removing stm32f4xx_rcc.o(i.RCC_GetFlagStatus), (64 bytes).
    Removing stm32f4xx_rcc.o(i.RCC_GetITStatus), (24 bytes).
    Removing stm32f4xx_rcc.o(i.RCC_GetSYSCLKSource), (16 bytes).
    Removing stm32f4xx_rcc.o(i.RCC_HCLKConfig), (24 bytes).
    Removing stm32f4xx_rcc.o(i.RCC_HSEConfig), (16 bytes).
    Removing stm32f4xx_rcc.o(i.RCC_HSICmd), (12 bytes).
    Removing stm32f4xx_rcc.o(i.RCC_I2SCLKConfig), (12 bytes).
    Removing stm32f4xx_rcc.o(i.RCC_ITConfig), (32 bytes).
    Removing stm32f4xx_rcc.o(i.RCC_LSEConfig), (44 bytes).
    Removing stm32f4xx_rcc.o(i.RCC_LSICmd), (12 bytes).
    Removing stm32f4xx_rcc.o(i.RCC_MCO1Config), (28 bytes).
    Removing stm32f4xx_rcc.o(i.RCC_MCO2Config), (28 bytes).
    Removing stm32f4xx_rcc.o(i.RCC_PCLK1Config), (24 bytes).
    Removing stm32f4xx_rcc.o(i.RCC_PCLK2Config), (24 bytes).
    Removing stm32f4xx_rcc.o(i.RCC_PLLCmd), (12 bytes).
    Removing stm32f4xx_rcc.o(i.RCC_PLLConfig), (36 bytes).
    Removing stm32f4xx_rcc.o(i.RCC_PLLI2SCmd), (12 bytes).
    Removing stm32f4xx_rcc.o(i.RCC_PLLI2SConfig), (16 bytes).
    Removing stm32f4xx_rcc.o(i.RCC_RTCCLKCmd), (12 bytes).
    Removing stm32f4xx_rcc.o(i.RCC_RTCCLKConfig), (60 bytes).
    Removing stm32f4xx_rcc.o(i.RCC_SYSCLKConfig), (24 bytes).
    Removing stm32f4xx_rcc.o(i.RCC_WaitForHSEStartUp), (56 bytes).
    Removing stm32f4xx_syscfg.o(.rev16_text), (4 bytes).
    Removing stm32f4xx_syscfg.o(.revsh_text), (4 bytes).
    Removing stm32f4xx_syscfg.o(.rrx_text), (6 bytes).
    Removing stm32f4xx_syscfg.o(i.SYSCFG_CompensationCellCmd), (12 bytes).
    Removing stm32f4xx_syscfg.o(i.SYSCFG_DeInit), (22 bytes).
    Removing stm32f4xx_syscfg.o(i.SYSCFG_ETH_MediaInterfaceConfig), (12 bytes).
    Removing stm32f4xx_syscfg.o(i.SYSCFG_GetCompensationCellStatus), (24 bytes).
    Removing stm32f4xx_syscfg.o(i.SYSCFG_MemoryRemapConfig), (12 bytes).
    Removing stm32f4xx_exti.o(.rev16_text), (4 bytes).
    Removing stm32f4xx_exti.o(.revsh_text), (4 bytes).
    Removing stm32f4xx_exti.o(.rrx_text), (6 bytes).
    Removing stm32f4xx_exti.o(i.EXTI_ClearFlag), (12 bytes).
    Removing stm32f4xx_exti.o(i.EXTI_DeInit), (36 bytes).
    Removing stm32f4xx_exti.o(i.EXTI_GenerateSWInterrupt), (16 bytes).
    Removing stm32f4xx_exti.o(i.EXTI_GetFlagStatus), (24 bytes).
    Removing stm32f4xx_exti.o(i.EXTI_StructInit), (16 bytes).
    Removing stm32f4xx_usart.o(.rev16_text), (4 bytes).
    Removing stm32f4xx_usart.o(.revsh_text), (4 bytes).
    Removing stm32f4xx_usart.o(.rrx_text), (6 bytes).
    Removing stm32f4xx_usart.o(i.USART_ClearFlag), (18 bytes).
    Removing stm32f4xx_usart.o(i.USART_ClearITPendingBit), (30 bytes).
    Removing stm32f4xx_usart.o(i.USART_ClockInit), (32 bytes).
    Removing stm32f4xx_usart.o(i.USART_ClockStructInit), (12 bytes).
    Removing stm32f4xx_usart.o(i.USART_DMACmd), (18 bytes).
    Removing stm32f4xx_usart.o(i.USART_DeInit), (180 bytes).
    Removing stm32f4xx_usart.o(i.USART_HalfDuplexCmd), (24 bytes).
    Removing stm32f4xx_usart.o(i.USART_IrDACmd), (24 bytes).
    Removing stm32f4xx_usart.o(i.USART_IrDAConfig), (18 bytes).
    Removing stm32f4xx_usart.o(i.USART_LINBreakDetectLengthConfig), (18 bytes).
    Removing stm32f4xx_usart.o(i.USART_LINCmd), (24 bytes).
    Removing stm32f4xx_usart.o(i.USART_OneBitMethodCmd), (24 bytes).
    Removing stm32f4xx_usart.o(i.USART_OverSampling8Cmd), (22 bytes).
    Removing stm32f4xx_usart.o(i.USART_ReceiveData), (10 bytes).
    Removing stm32f4xx_usart.o(i.USART_ReceiverWakeUpCmd), (24 bytes).
    Removing stm32f4xx_usart.o(i.USART_SendBreak), (10 bytes).
    Removing stm32f4xx_usart.o(i.USART_SetAddress), (18 bytes).
    Removing stm32f4xx_usart.o(i.USART_SetGuardTime), (16 bytes).
    Removing stm32f4xx_usart.o(i.USART_SetPrescaler), (16 bytes).
    Removing stm32f4xx_usart.o(i.USART_SmartCardCmd), (24 bytes).
    Removing stm32f4xx_usart.o(i.USART_SmartCardNACKCmd), (24 bytes).
    Removing stm32f4xx_usart.o(i.USART_StructInit), (24 bytes).
    Removing stm32f4xx_usart.o(i.USART_WakeUpConfig), (18 bytes).
    Removing stm32f4_discovery_lcd.o(.rev16_text), (4 bytes).
    Removing stm32f4_discovery_lcd.o(.revsh_text), (4 bytes).
    Removing stm32f4_discovery_lcd.o(.rrx_text), (6 bytes).
    Removing stm32f4_discovery_lcd.o(i.LCD_ClearLine), (40 bytes).
    Removing stm32f4_discovery_lcd.o(i.LCD_ClosedPolyLine), (48 bytes).
    Removing stm32f4_discovery_lcd.o(i.LCD_ClosedPolyLineRelative), (18 bytes).
    Removing stm32f4_discovery_lcd.o(i.LCD_DeInit), (556 bytes).
    Removing stm32f4_discovery_lcd.o(i.LCD_DisplayOff), (2 bytes).
    Removing stm32f4_discovery_lcd.o(i.LCD_DisplayOn), (2 bytes).
    Removing stm32f4_discovery_lcd.o(i.LCD_DrawFullCircle), (172 bytes).
    Removing stm32f4_discovery_lcd.o(i.LCD_DrawMonoPict), (84 bytes).
    Removing stm32f4_discovery_lcd.o(i.LCD_DrawUniLine), (286 bytes).
    Removing stm32f4_discovery_lcd.o(i.LCD_FillPolyLine), (596 bytes).
    Removing stm32f4_discovery_lcd.o(i.LCD_PolyLine), (68 bytes).
    Removing stm32f4_discovery_lcd.o(i.LCD_PolyLineRelative), (18 bytes).
    Removing stm32f4_discovery_lcd.o(i.LCD_PolyLineRelativeClosed), (118 bytes).
    Removing stm32f4_discovery_lcd.o(i.LCD_RGB_Test), (76 bytes).
    Removing stm32f4_discovery_lcd.o(i.LCD_ReadRAM), (12 bytes).
    Removing stm32f4_discovery_lcd.o(i.LCD_ReadReg), (20 bytes).
    Removing stm32f4_discovery_lcd.o(i.LCD_SetDisplayWindow), (98 bytes).
    Removing stm32f4_discovery_lcd.o(i.LCD_WindowModeDisable), (2 bytes).
    Removing stm32f4_discovery_lcd.o(i.LCD_WriteBMP), (2 bytes).
    Removing stm32f4_discovery_lcd.o(i.PutPixel), (42 bytes).
    Removing adc.o(.rev16_text), (4 bytes).
    Removing adc.o(.revsh_text), (4 bytes).
    Removing adc.o(.rrx_text), (6 bytes).
    Removing tm_stm32f4_ds1307.o(.rev16_text), (4 bytes).
    Removing tm_stm32f4_ds1307.o(.revsh_text), (4 bytes).
    Removing tm_stm32f4_ds1307.o(.rrx_text), (6 bytes).
    Removing tm_stm32f4_ds1307.o(i.TM_DS1307_DisableOutputPin), (10 bytes).
    Removing tm_stm32f4_ds1307.o(i.TM_DS1307_EnableOutputPin), (68 bytes).
    Removing tm_stm32f4_ds1307.o(i.TM_DS1307_GetDateTime), (96 bytes).
    Removing tm_stm32f4_ds1307.o(i.TM_DS1307_SetDateTime), (168 bytes).
    Removing tm_stm32f4_ds1307.o(.data), (12 bytes).
    Removing tm_stm32f4_gpio.o(.rev16_text), (4 bytes).
    Removing tm_stm32f4_gpio.o(.revsh_text), (4 bytes).
    Removing tm_stm32f4_gpio.o(.rrx_text), (6 bytes).
    Removing tm_stm32f4_gpio.o(i.TM_GPIO_DeInit), (72 bytes).
    Removing tm_stm32f4_gpio.o(i.TM_GPIO_GetFreePins), (28 bytes).
    Removing tm_stm32f4_gpio.o(i.TM_GPIO_GetPinSource), (18 bytes).
    Removing tm_stm32f4_gpio.o(i.TM_GPIO_GetUsedPins), (24 bytes).
    Removing tm_stm32f4_gpio.o(i.TM_GPIO_INT_DisableClock), (32 bytes).
    Removing tm_stm32f4_gpio.o(i.TM_GPIO_Init), (48 bytes).
    Removing tm_stm32f4_gpio.o(i.TM_GPIO_Lock), (16 bytes).
    Removing tm_stm32f4_gpio.o(i.TM_GPIO_SetPinAsAlternate), (50 bytes).
    Removing tm_stm32f4_gpio.o(i.TM_GPIO_SetPinAsAnalog), (38 bytes).
    Removing tm_stm32f4_gpio.o(i.TM_GPIO_SetPinAsInput), (38 bytes).
    Removing tm_stm32f4_gpio.o(i.TM_GPIO_SetPinAsOutput), (46 bytes).
    Removing tm_stm32f4_gpio.o(i.TM_GPIO_SetPullResistor), (50 bytes).
    Removing tm_stm32f4_i2c.o(.rev16_text), (4 bytes).
    Removing tm_stm32f4_i2c.o(.revsh_text), (4 bytes).
    Removing tm_stm32f4_i2c.o(.rrx_text), (6 bytes).
    Removing tm_stm32f4_i2c.o(i.TM_I2C_ReadAck), (68 bytes).
    Removing tm_stm32f4_i2c.o(i.TM_I2C_ReadMulti), (92 bytes).
    Removing tm_stm32f4_i2c.o(i.TM_I2C_ReadMultiNoRegister), (64 bytes).
    Removing tm_stm32f4_i2c.o(i.TM_I2C_ReadNoRegister), (30 bytes).
    Removing tm_stm32f4_i2c.o(i.TM_I2C_WriteMulti), (66 bytes).
    Removing tm_stm32f4_i2c.o(i.TM_I2C_WriteMultiNoRegister), (54 bytes).
    Removing tm_stm32f4_i2c.o(i.TM_I2C_WriteNoRegister), (36 bytes).
    Removing rtx_conf_cm.o(i.__user_perthread_libspace), (44 bytes).
    Removing rtx_conf_cm.o(i._mutex_initialize), (44 bytes).
    Removing system_stm32f4xx.o(.rev16_text), (4 bytes).
    Removing system_stm32f4xx.o(.revsh_text), (4 bytes).
    Removing system_stm32f4xx.o(.rrx_text), (6 bytes).
    Removing system_stm32f4xx.o(i.SystemCoreClockUpdate), (192 bytes).
    Removing system_stm32f4xx.o(.constdata), (16 bytes).
    Removing system_stm32f4xx.o(.data), (4 bytes).
    Removing rt_cmsis.o(.rev16_text), (4 bytes).
    Removing rt_cmsis.o(.revsh_text), (4 bytes).
    Removing rt_cmsis.o(.rrx_text), (6 bytes).
    Removing rt_cmsis.o(i.isrSemaphoreRelease), (40 bytes).
    Removing rt_cmsis.o(i.osKernelRunning), (36 bytes).
    Removing rt_cmsis.o(i.osKernelSysTick), (24 bytes).
    Removing rt_cmsis.o(i.osMailAlloc), (28 bytes).
    Removing rt_cmsis.o(i.osMailCAlloc), (48 bytes).
    Removing rt_cmsis.o(i.osMailCreate), (48 bytes).
    Removing rt_cmsis.o(i.osMailFree), (28 bytes).
    Removing rt_cmsis.o(i.osMailGet), (22 bytes).
    Removing rt_cmsis.o(i.osMailPut), (20 bytes).
    Removing rt_cmsis.o(i.osMessageCreate), (48 bytes).
    Removing rt_cmsis.o(i.osMessagePut), (24 bytes).
    Removing rt_cmsis.o(i.osMutexCreate), (48 bytes).
    Removing rt_cmsis.o(i.osMutexDelete), (24 bytes).
    Removing rt_cmsis.o(i.osMutexRelease), (24 bytes).
    Removing rt_cmsis.o(i.osMutexWait), (24 bytes).
    Removing rt_cmsis.o(i.osPoolAlloc), (32 bytes).
    Removing rt_cmsis.o(i.osPoolCAlloc), (52 bytes).
    Removing rt_cmsis.o(i.osPoolCreate), (48 bytes).
    Removing rt_cmsis.o(i.osPoolFree), (32 bytes).
    Removing rt_cmsis.o(i.osSemaphoreCreate), (48 bytes).
    Removing rt_cmsis.o(i.osSemaphoreDelete), (24 bytes).
    Removing rt_cmsis.o(i.osSemaphoreRelease), (24 bytes).
    Removing rt_cmsis.o(i.osSemaphoreWait), (24 bytes).
    Removing rt_cmsis.o(i.osThreadGetId), (24 bytes).
    Removing rt_cmsis.o(i.osThreadGetPriority), (24 bytes).
    Removing rt_cmsis.o(i.osThreadSetPriority), (24 bytes).
    Removing rt_cmsis.o(i.osThreadTerminate), (24 bytes).
    Removing rt_cmsis.o(i.osThreadYield), (24 bytes).
    Removing rt_cmsis.o(i.osTimerDelete), (24 bytes).
    Removing rt_cmsis.o(i.osTimerStop), (24 bytes).
    Removing rt_cmsis.o(i.osWait), (4 bytes).
    Removing rt_cmsis.o(i.os_resume), (12 bytes).
    Removing rt_cmsis.o(i.os_suspend), (12 bytes).
    Removing rt_cmsis.o(i.rt_clr_box), (24 bytes).
    Removing rt_cmsis.o(i.svcKernelRunning), (12 bytes).
    Removing rt_cmsis.o(i.svcKernelSysTick), (56 bytes).
    Removing rt_cmsis.o(i.svcMailCreate), (66 bytes).
    Removing rt_cmsis.o(i.svcMessagePut), (54 bytes).
    Removing rt_cmsis.o(i.svcMutexCreate), (28 bytes).
    Removing rt_cmsis.o(i.svcMutexDelete), (26 bytes).
    Removing rt_cmsis.o(i.svcMutexRelease), (34 bytes).
    Removing rt_cmsis.o(i.svcMutexWait), (54 bytes).
    Removing rt_cmsis.o(i.svcPoolCreate), (40 bytes).
    Removing rt_cmsis.o(i.svcSemaphoreCreate), (36 bytes).
    Removing rt_cmsis.o(i.svcSemaphoreDelete), (26 bytes).
    Removing rt_cmsis.o(i.svcSemaphoreRelease), (40 bytes).
    Removing rt_cmsis.o(i.svcSemaphoreWait), (50 bytes).
    Removing rt_cmsis.o(i.svcThreadGetPriority), (18 bytes).
    Removing rt_cmsis.o(i.svcThreadSetPriority), (46 bytes).
    Removing rt_cmsis.o(i.svcThreadYield), (10 bytes).
    Removing rt_cmsis.o(i.svcTimerDelete), (40 bytes).
    Removing rt_cmsis.o(i.svcTimerStop), (36 bytes).
    Removing rt_cmsis.o(i.sysMailAlloc), (88 bytes).
    Removing rt_cmsis.o(i.sysMailFree), (96 bytes).
    Removing rt_cmsis.o(i.sysPoolAlloc), (10 bytes).
    Removing rt_cmsis.o(i.sysPoolFree), (20 bytes).
    Removing rt_cmsis.o(i.sysUserTimerUpdate), (48 bytes).
    Removing rt_cmsis.o(i.sysUserTimerWakeupTime), (20 bytes).
    Removing rt_task.o(i.rt_tsk_pass), (48 bytes).
    Removing rt_mutex.o(i.rt_mut_delete), (176 bytes).
    Removing rt_mutex.o(i.rt_mut_init), (16 bytes).
    Removing rt_system.o(.emb_text), (0 bytes).
    Removing rt_system.o(i.os_tick_ovf), (16 bytes).
    Removing rt_system.o(i.os_tick_val), (20 bytes).
    Removing rt_system.o(i.rt_resume), (136 bytes).
    Removing rt_system.o(i.rt_suspend), (36 bytes).
    Removing rt_system.o(i.rt_tsk_lock), (80 bytes).
    Removing rt_system.o(i.rt_tsk_unlock), (80 bytes).
    Removing rt_event.o(i.rt_evt_get), (12 bytes).
    Removing rt_list.o(i.rt_get_same_rdy_prio), (36 bytes).
    Removing rt_mailbox.o(i.rt_mbx_send), (152 bytes).
    Removing rt_semaphore.o(i.isr_sem_send), (16 bytes).
    Removing rt_semaphore.o(i.rt_sem_delete), (92 bytes).
    Removing rt_semaphore.o(i.rt_sem_init), (12 bytes).
    Removing rt_semaphore.o(i.rt_sem_send), (42 bytes).
    Removing rt_semaphore.o(i.rt_sem_wait), (64 bytes).
    Removing rt_time.o(i.rt_itv_set), (24 bytes).
    Removing rt_time.o(i.rt_itv_wait), (40 bytes).
    Removing rt_time.o(i.rt_time_get), (12 bytes).
    Removing rt_membox.o(i._calloc_box), (30 bytes).

345 unused section(s) (total 12366 bytes) removed from the image.

==============================================================================

Image Symbol Table

    Local Symbols

    Symbol Name                              Value     Ov Type        Size  Object(Section)

    ../clib/angel/boardlib.s                 0x00000000   Number         0  boardshut.o ABSOLUTE
    ../clib/angel/boardlib.s                 0x00000000   Number         0  boardinit2.o ABSOLUTE
    ../clib/angel/boardlib.s                 0x00000000   Number         0  boardinit1.o ABSOLUTE
    ../clib/angel/handlers.s                 0x00000000   Number         0  __scatter_copy.o ABSOLUTE
    ../clib/angel/handlers.s                 0x00000000   Number         0  __scatter_zi.o ABSOLUTE
    ../clib/angel/kernel.s                   0x00000000   Number         0  __rtentry4.o ABSOLUTE
    ../clib/angel/kernel.s                   0x00000000   Number         0  rtexit.o ABSOLUTE
    ../clib/angel/kernel.s                   0x00000000   Number         0  __rtentry.o ABSOLUTE
    ../clib/angel/kernel.s                   0x00000000   Number         0  rtexit2.o ABSOLUTE
    ../clib/angel/kernel.s                   0x00000000   Number         0  __rtentry2.o ABSOLUTE
    ../clib/angel/rt.s                       0x00000000   Number         0  aeabi_ldiv0.o ABSOLUTE
    ../clib/angel/rt.s                       0x00000000   Number         0  rt_div0.o ABSOLUTE
    ../clib/angel/rt.s                       0x00000000   Number         0  aeabi_ldiv0_sigfpe.o ABSOLUTE
    ../clib/angel/rt.s                       0x00000000   Number         0  rt_raise.o ABSOLUTE
    ../clib/angel/scatter.s                  0x00000000   Number         0  __scatter.o ABSOLUTE
    ../clib/angel/startup.s                  0x00000000   Number         0  __main.o ABSOLUTE
    ../clib/angel/sys.s                      0x00000000   Number         0  sys_stackheap_outer.o ABSOLUTE
    ../clib/angel/sys.s                      0x00000000   Number         0  libspace.o ABSOLUTE
    ../clib/angel/sys.s                      0x00000000   Number         0  indicate_semi.o ABSOLUTE
    ../clib/angel/sys.s                      0x00000000   Number         0  use_no_semi.o ABSOLUTE
    ../clib/angel/sysapp.c                   0x00000000   Number         0  sys_command.o ABSOLUTE
    ../clib/angel/sysapp.c                   0x00000000   Number         0  sys_exit.o ABSOLUTE
    ../clib/angel/sysapp.c                   0x00000000   Number         0  sys_wrch.o ABSOLUTE
    ../clib/armsys.c                         0x00000000   Number         0  no_argv.o ABSOLUTE
    ../clib/armsys.c                         0x00000000   Number         0  _get_argv_nomalloc.o ABSOLUTE
    ../clib/armsys.c                         0x00000000   Number         0  argv_veneer.o ABSOLUTE
    ../clib/armsys.c                         0x00000000   Number         0  argv_veneer.o ABSOLUTE
    ../clib/heapalloc.c                      0x00000000   Number         0  hrguard.o ABSOLUTE
    ../clib/heapaux.c                        0x00000000   Number         0  heapauxi.o ABSOLUTE
    ../clib/libinit.s                        0x00000000   Number         0  libshutdown2.o ABSOLUTE
    ../clib/libinit.s                        0x00000000   Number         0  libinit2.o ABSOLUTE
    ../clib/libinit.s                        0x00000000   Number         0  libinit.o ABSOLUTE
    ../clib/libinit.s                        0x00000000   Number         0  libshutdown.o ABSOLUTE
    ../clib/longlong.s                       0x00000000   Number         0  lludivv7m.o ABSOLUTE
    ../clib/memcpset.s                       0x00000000   Number         0  strcmpv7m.o ABSOLUTE
    ../clib/memcpset.s                       0x00000000   Number         0  rt_memcpy_w.o ABSOLUTE
    ../clib/misc.s                           0x00000000   Number         0  printf_stubs.o ABSOLUTE
    ../clib/printf.c                         0x00000000   Number         0  __printf_wp.o ABSOLUTE
    ../clib/printf.c                         0x00000000   Number         0  __printf_flags_ss_wp.o ABSOLUTE
    ../clib/printf.c                         0x00000000   Number         0  __printf_ss_wp.o ABSOLUTE
    ../clib/printf.c                         0x00000000   Number         0  __printf_flags_wp.o ABSOLUTE
    ../clib/printf.c                         0x00000000   Number         0  __printf_flags_ss.o ABSOLUTE
    ../clib/printf.c                         0x00000000   Number         0  __printf_ss.o ABSOLUTE
    ../clib/printf.c                         0x00000000   Number         0  __printf_flags.o ABSOLUTE
    ../clib/printf.c                         0x00000000   Number         0  _printf_dec.o ABSOLUTE
    ../clib/printf.c                         0x00000000   Number         0  _printf_str.o ABSOLUTE
    ../clib/printf.c                         0x00000000   Number         0  _printf_pad.o ABSOLUTE
    ../clib/printf.c                         0x00000000   Number         0  __printf_nopercent.o ABSOLUTE
    ../clib/printf.c                         0x00000000   Number         0  __printf.o ABSOLUTE
    ../clib/printf.c                         0x00000000   Number         0  noretval__2sprintf.o ABSOLUTE
    ../clib/printf.c                         0x00000000   Number         0  __2sprintf.o ABSOLUTE
    ../clib/printf.c                         0x00000000   Number         0  _printf_char.o ABSOLUTE
    ../clib/printf.c                         0x00000000   Number         0  _sputc.o ABSOLUTE
    ../clib/printf.c                         0x00000000   Number         0  _printf_char_common.o ABSOLUTE
    ../clib/printf.c                         0x00000000   Number         0  _printf_intcommon.o ABSOLUTE
    ../clib/printf_percent.s                 0x00000000   Number         0  _printf_s.o ABSOLUTE
    ../clib/printf_percent.s                 0x00000000   Number         0  _printf_percent.o ABSOLUTE
    ../clib/printf_percent.s                 0x00000000   Number         0  _printf_d.o ABSOLUTE
    ../clib/printf_percent.s                 0x00000000   Number         0  _printf_percent_end.o ABSOLUTE
    ../clib/signal.c                         0x00000000   Number         0  defsig_rtred_inner.o ABSOLUTE
    ../clib/signal.c                         0x00000000   Number         0  defsig_other.o ABSOLUTE
    ../clib/signal.c                         0x00000000   Number         0  defsig_segv_inner.o ABSOLUTE
    ../clib/signal.c                         0x00000000   Number         0  defsig_cppl_inner.o ABSOLUTE
    ../clib/signal.c                         0x00000000   Number         0  defsig_pvfn_inner.o ABSOLUTE
    ../clib/signal.c                         0x00000000   Number         0  defsig_stak_inner.o ABSOLUTE
    ../clib/signal.c                         0x00000000   Number         0  defsig_rtmem_formal.o ABSOLUTE
    ../clib/signal.c                         0x00000000   Number         0  defsig_rtmem_outer.o ABSOLUTE
    ../clib/signal.c                         0x00000000   Number         0  defsig_rtmem_inner.o ABSOLUTE
    ../clib/signal.c                         0x00000000   Number         0  defsig_fpe_formal.o ABSOLUTE
    ../clib/signal.c                         0x00000000   Number         0  defsig_abrt_inner.o ABSOLUTE
    ../clib/signal.c                         0x00000000   Number         0  defsig_general.o ABSOLUTE
    ../clib/signal.c                         0x00000000   Number         0  __raise.o ABSOLUTE
    ../clib/signal.c                         0x00000000   Number         0  defsig_fpe_inner.o ABSOLUTE
    ../clib/signal.c                         0x00000000   Number         0  defsig_exit.o ABSOLUTE
    ../clib/signal.c                         0x00000000   Number         0  defsig_fpe_outer.o ABSOLUTE
    ../clib/signal.s                         0x00000000   Number         0  defsig.o ABSOLUTE
    ../clib/stdlib.c                         0x00000000   Number         0  exit.o ABSOLUTE
    ../clib/string.c                         0x00000000   Number         0  strlen.o ABSOLUTE
    ../clib/string.c                         0x00000000   Number         0  strstr.o ABSOLUTE
    ../clib/string.c                         0x00000000   Number         0  strcpy.o ABSOLUTE
    ../fplib/dcmpi.s                         0x00000000   Number         0  dcmpi.o ABSOLUTE
    ../fplib/dflt.s                          0x00000000   Number         0  dflt_clz.o ABSOLUTE
    ../fplib/dleqf.s                         0x00000000   Number         0  dleqf.o ABSOLUTE
    ../fplib/dnaninf.s                       0x00000000   Number         0  dnaninf.o ABSOLUTE
    ../fplib/drleqf.s                        0x00000000   Number         0  drleqf.o ABSOLUTE
    ../fplib/fpinit.s                        0x00000000   Number         0  fpinit.o ABSOLUTE
    ../fplib/usenofp.s                       0x00000000   Number         0  usenofp.o ABSOLUTE
    ..\..\..\..\001libraries\STM32F4xx_StdPeriph_Driver\src\misc.c 0x00000000   Number         0  misc.o ABSOLUTE
    ..\..\..\..\001libraries\STM32F4xx_StdPeriph_Driver\src\stm32f4xx_adc.c 0x00000000   Number         0  stm32f4xx_adc.o ABSOLUTE
    ..\..\..\..\001libraries\STM32F4xx_StdPeriph_Driver\src\stm32f4xx_exti.c 0x00000000   Number         0  stm32f4xx_exti.o ABSOLUTE
    ..\..\..\..\001libraries\STM32F4xx_StdPeriph_Driver\src\stm32f4xx_fsmc.c 0x00000000   Number         0  stm32f4xx_fsmc.o ABSOLUTE
    ..\..\..\..\001libraries\STM32F4xx_StdPeriph_Driver\src\stm32f4xx_gpio.c 0x00000000   Number         0  stm32f4xx_gpio.o ABSOLUTE
    ..\..\..\..\001libraries\STM32F4xx_StdPeriph_Driver\src\stm32f4xx_i2c.c 0x00000000   Number         0  stm32f4xx_i2c.o ABSOLUTE
    ..\..\..\..\001libraries\STM32F4xx_StdPeriph_Driver\src\stm32f4xx_rcc.c 0x00000000   Number         0  stm32f4xx_rcc.o ABSOLUTE
    ..\..\..\..\001libraries\STM32F4xx_StdPeriph_Driver\src\stm32f4xx_syscfg.c 0x00000000   Number         0  stm32f4xx_syscfg.o ABSOLUTE
    ..\..\..\..\001libraries\STM32F4xx_StdPeriph_Driver\src\stm32f4xx_usart.c 0x00000000   Number         0  stm32f4xx_usart.o ABSOLUTE
    ..\..\..\..\001libraries\TM_STM32F4XX\tm_stm32f4_ds1307.c 0x00000000   Number         0  tm_stm32f4_ds1307.o ABSOLUTE
    ..\..\..\..\001libraries\TM_STM32F4XX\tm_stm32f4_gpio.c 0x00000000   Number         0  tm_stm32f4_gpio.o ABSOLUTE
    ..\..\..\..\001libraries\TM_STM32F4XX\tm_stm32f4_i2c.c 0x00000000   Number         0  tm_stm32f4_i2c.o ABSOLUTE
    ..\..\..\..\001libraries\stm32f4_discovery\stm32f4_discovery_lcd.c 0x00000000   Number         0  stm32f4_discovery_lcd.o ABSOLUTE
    ..\..\..\..\001libraries\stm32f4_discovery_shu\src\adc.c 0x00000000   Number         0  adc.o ABSOLUTE
    ..\HAL_CM.c                              0x00000000   Number         0  hal_cm.o ABSOLUTE
    ..\\..\\..\\..\\001libraries\\STM32F4xx_StdPeriph_Driver\\src\\misc.c 0x00000000   Number         0  misc.o ABSOLUTE
    ..\\..\\..\\..\\001libraries\\STM32F4xx_StdPeriph_Driver\\src\\stm32f4xx_adc.c 0x00000000   Number         0  stm32f4xx_adc.o ABSOLUTE
    ..\\..\\..\\..\\001libraries\\STM32F4xx_StdPeriph_Driver\\src\\stm32f4xx_exti.c 0x00000000   Number         0  stm32f4xx_exti.o ABSOLUTE
    ..\\..\\..\\..\\001libraries\\STM32F4xx_StdPeriph_Driver\\src\\stm32f4xx_fsmc.c 0x00000000   Number         0  stm32f4xx_fsmc.o ABSOLUTE
    ..\\..\\..\\..\\001libraries\\STM32F4xx_StdPeriph_Driver\\src\\stm32f4xx_gpio.c 0x00000000   Number         0  stm32f4xx_gpio.o ABSOLUTE
    ..\\..\\..\\..\\001libraries\\STM32F4xx_StdPeriph_Driver\\src\\stm32f4xx_i2c.c 0x00000000   Number         0  stm32f4xx_i2c.o ABSOLUTE
    ..\\..\\..\\..\\001libraries\\STM32F4xx_StdPeriph_Driver\\src\\stm32f4xx_rcc.c 0x00000000   Number         0  stm32f4xx_rcc.o ABSOLUTE
    ..\\..\\..\\..\\001libraries\\STM32F4xx_StdPeriph_Driver\\src\\stm32f4xx_syscfg.c 0x00000000   Number         0  stm32f4xx_syscfg.o ABSOLUTE
    ..\\..\\..\\..\\001libraries\\STM32F4xx_StdPeriph_Driver\\src\\stm32f4xx_usart.c 0x00000000   Number         0  stm32f4xx_usart.o ABSOLUTE
    ..\\..\\..\\..\\001libraries\\TM_STM32F4XX\\tm_stm32f4_ds1307.c 0x00000000   Number         0  tm_stm32f4_ds1307.o ABSOLUTE
    ..\\..\\..\\..\\001libraries\\TM_STM32F4XX\\tm_stm32f4_gpio.c 0x00000000   Number         0  tm_stm32f4_gpio.o ABSOLUTE
    ..\\..\\..\\..\\001libraries\\TM_STM32F4XX\\tm_stm32f4_i2c.c 0x00000000   Number         0  tm_stm32f4_i2c.o ABSOLUTE
    ..\\..\\..\\..\\001libraries\\stm32f4_discovery\\stm32f4_discovery_lcd.c 0x00000000   Number         0  stm32f4_discovery_lcd.o ABSOLUTE
    ..\\..\\..\\..\\001libraries\\stm32f4_discovery_shu\\src\\adc.c 0x00000000   Number         0  adc.o ABSOLUTE
    ..\\rt_CMSIS.c                           0x00000000   Number         0  rt_cmsis.o ABSOLUTE
    ..\\rt_System.c                          0x00000000   Number         0  rt_system.o ABSOLUTE
    ..\rt_CMSIS.c                            0x00000000   Number         0  rt_cmsis.o ABSOLUTE
    ..\rt_Event.c                            0x00000000   Number         0  rt_event.o ABSOLUTE
    ..\rt_List.c                             0x00000000   Number         0  rt_list.o ABSOLUTE
    ..\rt_Mailbox.c                          0x00000000   Number         0  rt_mailbox.o ABSOLUTE
    ..\rt_MemBox.c                           0x00000000   Number         0  rt_membox.o ABSOLUTE
    ..\rt_Memory.c                           0x00000000   Number         0  rt_memory.o ABSOLUTE
    ..\rt_Mutex.c                            0x00000000   Number         0  rt_mutex.o ABSOLUTE
    ..\rt_Robin.c                            0x00000000   Number         0  rt_robin.o ABSOLUTE
    ..\rt_Semaphore.c                        0x00000000   Number         0  rt_semaphore.o ABSOLUTE
    ..\rt_System.c                           0x00000000   Number         0  rt_system.o ABSOLUTE
    ..\rt_Task.c                             0x00000000   Number         0  rt_task.o ABSOLUTE
    ..\rt_Time.c                             0x00000000   Number         0  rt_time.o ABSOLUTE
    HAL_CM4.c                                0x00000000   Number         0  hal_cm4.o ABSOLUTE
    HAL_CM4.c                                0x00000000   Number         0  hal_cm4.o ABSOLUTE
    RTE\CMSIS\RTX_Conf_CM.c                  0x00000000   Number         0  rtx_conf_cm.o ABSOLUTE
    RTE\Device\STM32F407VGTx\startup_stm32f407xx.s 0x00000000   Number         0  startup_stm32f407xx.o ABSOLUTE
    RTE\Device\STM32F407VGTx\system_stm32f4xx.c 0x00000000   Number         0  system_stm32f4xx.o ABSOLUTE
    RTE\\CMSIS\\RTX_Conf_CM.c                0x00000000   Number         0  rtx_conf_cm.o ABSOLUTE
    RTE\\Device\\STM32F407VGTx\\system_stm32f4xx.c 0x00000000   Number         0  system_stm32f4xx.o ABSOLUTE
    SVC_Table.s                              0x00000000   Number         0  svc_table.o ABSOLUTE
    Src\\main.c                              0x00000000   Number         0  main.o ABSOLUTE
    Src\main.c                               0x00000000   Number         0  main.o ABSOLUTE
    Timer.c                                  0x00000000   Number         0  timer.o ABSOLUTE
    Timer.c                                  0x00000000   Number         0  timer.o ABSOLUTE
    dc.s                                     0x00000000   Number         0  dc.o ABSOLUTE
    RESET                                    0x08000000   Section      392  startup_stm32f407xx.o(RESET)
    !!!main                                  0x08000188   Section        8  __main.o(!!!main)
    !!!scatter                               0x08000190   Section       52  __scatter.o(!!!scatter)
    !!handler_copy                           0x080001c4   Section       26  __scatter_copy.o(!!handler_copy)
    !!handler_zi                             0x080001e0   Section       28  __scatter_zi.o(!!handler_zi)
    .ARM.Collect$$_printf_percent$$00000000  0x080001fc   Section        0  _printf_percent.o(.ARM.Collect$$_printf_percent$$00000000)
    .ARM.Collect$$_printf_percent$$00000009  0x080001fc   Section        6  _printf_d.o(.ARM.Collect$$_printf_percent$$00000009)
    .ARM.Collect$$_printf_percent$$00000014  0x08000202   Section        6  _printf_s.o(.ARM.Collect$$_printf_percent$$00000014)
    .ARM.Collect$$_printf_percent$$00000017  0x08000208   Section        4  _printf_percent_end.o(.ARM.Collect$$_printf_percent$$00000017)
    .ARM.Collect$$libinit$$00000000          0x0800020c   Section        2  libinit.o(.ARM.Collect$$libinit$$00000000)
    .ARM.Collect$$libinit$$00000001          0x0800020e   Section        4  libinit2.o(.ARM.Collect$$libinit$$00000001)
    .ARM.Collect$$libinit$$00000004          0x08000212   Section        0  libinit2.o(.ARM.Collect$$libinit$$00000004)
    .ARM.Collect$$libinit$$0000000A          0x08000212   Section        0  libinit2.o(.ARM.Collect$$libinit$$0000000A)
    .ARM.Collect$$libinit$$0000000C          0x08000212   Section        0  libinit2.o(.ARM.Collect$$libinit$$0000000C)
    .ARM.Collect$$libinit$$0000000E          0x08000212   Section        0  libinit2.o(.ARM.Collect$$libinit$$0000000E)
    .ARM.Collect$$libinit$$00000011          0x08000212   Section        0  libinit2.o(.ARM.Collect$$libinit$$00000011)
    .ARM.Collect$$libinit$$00000013          0x08000212   Section        0  libinit2.o(.ARM.Collect$$libinit$$00000013)
    .ARM.Collect$$libinit$$00000015          0x08000212   Section        0  libinit2.o(.ARM.Collect$$libinit$$00000015)
    .ARM.Collect$$libinit$$00000017          0x08000212   Section        0  libinit2.o(.ARM.Collect$$libinit$$00000017)
    .ARM.Collect$$libinit$$00000019          0x08000212   Section        0  libinit2.o(.ARM.Collect$$libinit$$00000019)
    .ARM.Collect$$libinit$$0000001B          0x08000212   Section        0  libinit2.o(.ARM.Collect$$libinit$$0000001B)
    .ARM.Collect$$libinit$$0000001D          0x08000212   Section        0  libinit2.o(.ARM.Collect$$libinit$$0000001D)
    .ARM.Collect$$libinit$$0000001F          0x08000212   Section        0  libinit2.o(.ARM.Collect$$libinit$$0000001F)
    .ARM.Collect$$libinit$$00000021          0x08000212   Section        0  libinit2.o(.ARM.Collect$$libinit$$00000021)
    .ARM.Collect$$libinit$$00000023          0x08000212   Section        0  libinit2.o(.ARM.Collect$$libinit$$00000023)
    .ARM.Collect$$libinit$$00000025          0x08000212   Section        0  libinit2.o(.ARM.Collect$$libinit$$00000025)
    .ARM.Collect$$libinit$$0000002C          0x08000212   Section        0  libinit2.o(.ARM.Collect$$libinit$$0000002C)
    .ARM.Collect$$libinit$$0000002E          0x08000212   Section        0  libinit2.o(.ARM.Collect$$libinit$$0000002E)
    .ARM.Collect$$libinit$$00000030          0x08000212   Section        0  libinit2.o(.ARM.Collect$$libinit$$00000030)
    .ARM.Collect$$libinit$$00000032          0x08000212   Section        0  libinit2.o(.ARM.Collect$$libinit$$00000032)
    .ARM.Collect$$libinit$$00000033          0x08000212   Section        2  libinit2.o(.ARM.Collect$$libinit$$00000033)
    .ARM.Collect$$libshutdown$$00000000      0x08000214   Section        2  libshutdown.o(.ARM.Collect$$libshutdown$$00000000)
    .ARM.Collect$$libshutdown$$00000002      0x08000216   Section        0  libshutdown2.o(.ARM.Collect$$libshutdown$$00000002)
    .ARM.Collect$$libshutdown$$00000004      0x08000216   Section        0  libshutdown2.o(.ARM.Collect$$libshutdown$$00000004)
    .ARM.Collect$$libshutdown$$00000007      0x08000216   Section        0  libshutdown2.o(.ARM.Collect$$libshutdown$$00000007)
    .ARM.Collect$$libshutdown$$0000000A      0x08000216   Section        0  libshutdown2.o(.ARM.Collect$$libshutdown$$0000000A)
    .ARM.Collect$$libshutdown$$0000000C      0x08000216   Section        0  libshutdown2.o(.ARM.Collect$$libshutdown$$0000000C)
    .ARM.Collect$$libshutdown$$0000000F      0x08000216   Section        0  libshutdown2.o(.ARM.Collect$$libshutdown$$0000000F)
    .ARM.Collect$$libshutdown$$00000010      0x08000216   Section        2  libshutdown2.o(.ARM.Collect$$libshutdown$$00000010)
    .ARM.Collect$$rtentry$$00000000          0x08000218   Section        0  __rtentry.o(.ARM.Collect$$rtentry$$00000000)
    .ARM.Collect$$rtentry$$00000002          0x08000218   Section        0  __rtentry2.o(.ARM.Collect$$rtentry$$00000002)
    .ARM.Collect$$rtentry$$00000004          0x08000218   Section        6  __rtentry4.o(.ARM.Collect$$rtentry$$00000004)
    .ARM.Collect$$rtentry$$00000009          0x0800021e   Section        0  __rtentry2.o(.ARM.Collect$$rtentry$$00000009)
    .ARM.Collect$$rtentry$$0000000A          0x0800021e   Section        4  __rtentry2.o(.ARM.Collect$$rtentry$$0000000A)
    .ARM.Collect$$rtentry$$0000000B          0x08000222   Section        8  __rtentry2.o(.ARM.Collect$$rtentry$$0000000B)
    .ARM.Collect$$rtentry$$0000000D          0x0800022a   Section        8  __rtentry2.o(.ARM.Collect$$rtentry$$0000000D)
    .ARM.Collect$$rtexit$$00000000           0x08000232   Section        2  rtexit.o(.ARM.Collect$$rtexit$$00000000)
    .ARM.Collect$$rtexit$$00000002           0x08000234   Section        0  rtexit2.o(.ARM.Collect$$rtexit$$00000002)
    .ARM.Collect$$rtexit$$00000003           0x08000234   Section        4  rtexit2.o(.ARM.Collect$$rtexit$$00000003)
    .ARM.Collect$$rtexit$$00000004           0x08000238   Section        6  rtexit2.o(.ARM.Collect$$rtexit$$00000004)
    .emb_text                                0x08000240   Section       28  rtx_conf_cm.o(.emb_text)
    $v0                                      0x08000240   Number         0  rtx_conf_cm.o(.emb_text)
    .emb_text                                0x0800025c   Section      408  hal_cm4.o(.emb_text)
    $v0                                      0x0800025c   Number         0  hal_cm4.o(.emb_text)
    .text                                    0x080003f4   Section       64  startup_stm32f407xx.o(.text)
    $v0                                      0x080003f4   Number         0  startup_stm32f407xx.o(.text)
    .text                                    0x08000434   Section        8  libspace.o(.text)
    .text                                    0x0800043c   Section      238  lludivv7m.o(.text)
    .text                                    0x0800052c   Section        0  noretval__2sprintf.o(.text)
    .text                                    0x08000554   Section        0  _printf_pad.o(.text)
    .text                                    0x080005a2   Section        0  _printf_str.o(.text)
    .text                                    0x080005f4   Section        0  _printf_dec.o(.text)
    .text                                    0x0800066c   Section        0  __printf_flags_wp.o(.text)
    .text                                    0x080007a4   Section        0  exit.o(.text)
    .text                                    0x080007b6   Section        0  strstr.o(.text)
    .text                                    0x080007da   Section        0  strcpy.o(.text)
    .text                                    0x08000822   Section        0  strlen.o(.text)
    .text                                    0x08000860   Section      100  rt_memcpy_w.o(.text)
    .text                                    0x080008c4   Section      128  strcmpv7m.o(.text)
    .text                                    0x08000944   Section        0  heapauxi.o(.text)
    .text                                    0x0800094a   Section        0  _printf_intcommon.o(.text)
    .text                                    0x080009fc   Section        0  _printf_char_common.o(.text)
    _printf_input_char                       0x080009fd   Thumb Code    10  _printf_char_common.o(.text)
    .text                                    0x08000a2c   Section        0  _sputc.o(.text)
    .text                                    0x08000a36   Section        0  _printf_char.o(.text)
    .text                                    0x08000a64   Section        0  sys_exit.o(.text)
    .text                                    0x08000a70   Section       74  sys_stackheap_outer.o(.text)
    .text                                    0x08000aba   Section        2  use_no_semi.o(.text)
    .text                                    0x08000abc   Section        0  indicate_semi.o(.text)
    SVC_TABLE                                0x08000abc   Section        4  svc_table.o(SVC_TABLE)
    i.ADC_Cmd                                0x08000ac0   Section        0  stm32f4xx_adc.o(i.ADC_Cmd)
    i.ADC_CommonInit                         0x08000ad8   Section        0  stm32f4xx_adc.o(i.ADC_CommonInit)
    i.ADC_CommonStructInit                   0x08000b08   Section        0  stm32f4xx_adc.o(i.ADC_CommonStructInit)
    i.ADC_GetConversionValue                 0x08000b14   Section        0  stm32f4xx_adc.o(i.ADC_GetConversionValue)
    i.ADC_GetFlagStatus                      0x08000b1c   Section        0  stm32f4xx_adc.o(i.ADC_GetFlagStatus)
    i.ADC_Init                               0x08000b30   Section        0  stm32f4xx_adc.o(i.ADC_Init)
    i.ADC_RegularChannelConfig               0x08000b84   Section        0  stm32f4xx_adc.o(i.ADC_RegularChannelConfig)
    i.ADC_SoftwareStartConv                  0x08000c3c   Section        0  stm32f4xx_adc.o(i.ADC_SoftwareStartConv)
    i.ADC_StructInit                         0x08000c46   Section        0  stm32f4xx_adc.o(i.ADC_StructInit)
    i.EXTI0_IRQHandler                       0x08000c5c   Section        0  main.o(i.EXTI0_IRQHandler)
    i.EXTI15_10_IRQHandler                   0x08000c80   Section        0  main.o(i.EXTI15_10_IRQHandler)
    i.EXTI_ClearITPendingBit                 0x08000ce0   Section        0  stm32f4xx_exti.o(i.EXTI_ClearITPendingBit)
    i.EXTI_GetITStatus                       0x08000cec   Section        0  stm32f4xx_exti.o(i.EXTI_GetITStatus)
    i.EXTI_Init                              0x08000d14   Section        0  stm32f4xx_exti.o(i.EXTI_Init)
    i.FSMC_NORSRAMCmd                        0x08000da8   Section        0  stm32f4xx_fsmc.o(i.FSMC_NORSRAMCmd)
    i.FSMC_NORSRAMInit                       0x08000ddc   Section        0  stm32f4xx_fsmc.o(i.FSMC_NORSRAMInit)
    i.GPIO_Init                              0x08000ec2   Section        0  stm32f4xx_gpio.o(i.GPIO_Init)
    i.GPIO_PinAFConfig                       0x08000f52   Section        0  stm32f4xx_gpio.o(i.GPIO_PinAFConfig)
    i.GPIO_ReadInputDataBit                  0x08000f98   Section        0  stm32f4xx_gpio.o(i.GPIO_ReadInputDataBit)
    i.GPIO_ResetBits                         0x08000faa   Section        0  stm32f4xx_gpio.o(i.GPIO_ResetBits)
    i.GPIO_SetBits                           0x08000fae   Section        0  stm32f4xx_gpio.o(i.GPIO_SetBits)
    i.GPIO_StructInit                        0x08000fb2   Section        0  stm32f4xx_gpio.o(i.GPIO_StructInit)
    i.GPIO_WriteBit                          0x08000fc4   Section        0  stm32f4xx_gpio.o(i.GPIO_WriteBit)
    i.I2C_CheckEvent                         0x08000fce   Section        0  stm32f4xx_i2c.o(i.I2C_CheckEvent)
    i.I2C_Init                               0x08000ff8   Section        0  stm32f4xx_i2c.o(i.I2C_Init)
    i.Init_Timers                            0x080010e0   Section        0  timer.o(i.Init_Timers)
    i.LCD_Clear                              0x08001150   Section        0  stm32f4_discovery_lcd.o(i.LCD_Clear)
    i.LCD_CtrlLinesConfig                    0x08001178   Section        0  stm32f4_discovery_lcd.o(i.LCD_CtrlLinesConfig)
    i.LCD_DisplayChar                        0x080012e8   Section        0  stm32f4_discovery_lcd.o(i.LCD_DisplayChar)
    i.LCD_DisplayStringLine                  0x08001318   Section        0  stm32f4_discovery_lcd.o(i.LCD_DisplayStringLine)
    i.LCD_DrawChar                           0x08001350   Section        0  stm32f4_discovery_lcd.o(i.LCD_DrawChar)
    i.LCD_DrawCircle                         0x080013fc   Section        0  stm32f4_discovery_lcd.o(i.LCD_DrawCircle)
    i.LCD_DrawFullRect                       0x080014fc   Section        0  stm32f4_discovery_lcd.o(i.LCD_DrawFullRect)
    i.LCD_DrawLine                           0x08001584   Section        0  stm32f4_discovery_lcd.o(i.LCD_DrawLine)
    i.LCD_DrawRect                           0x080015e0   Section        0  stm32f4_discovery_lcd.o(i.LCD_DrawRect)
    i.LCD_FSMCConfig                         0x08001622   Section        0  stm32f4_discovery_lcd.o(i.LCD_FSMCConfig)
    i.LCD_GetColors                          0x08001680   Section        0  stm32f4_discovery_lcd.o(i.LCD_GetColors)
    i.LCD_GetFont                            0x08001698   Section        0  stm32f4_discovery_lcd.o(i.LCD_GetFont)
    i.LCD_SetBackColor                       0x080016a4   Section        0  stm32f4_discovery_lcd.o(i.LCD_SetBackColor)
    i.LCD_SetColors                          0x080016b4   Section        0  stm32f4_discovery_lcd.o(i.LCD_SetColors)
    i.LCD_SetCursor                          0x080016d0   Section        0  stm32f4_discovery_lcd.o(i.LCD_SetCursor)
    i.LCD_SetFont                            0x080016e8   Section        0  stm32f4_discovery_lcd.o(i.LCD_SetFont)
    i.LCD_SetTextColor                       0x080016f4   Section        0  stm32f4_discovery_lcd.o(i.LCD_SetTextColor)
    i.LCD_WriteRAM                           0x08001704   Section        0  stm32f4_discovery_lcd.o(i.LCD_WriteRAM)
    i.LCD_WriteRAM_Prepare                   0x08001710   Section        0  stm32f4_discovery_lcd.o(i.LCD_WriteRAM_Prepare)
    i.LCD_WriteReg                           0x0800171c   Section        0  stm32f4_discovery_lcd.o(i.LCD_WriteReg)
    i.NVIC_Init                              0x0800172c   Section        0  misc.o(i.NVIC_Init)
    i.RCC_AHB1PeriphClockCmd                 0x080017a4   Section        0  stm32f4xx_rcc.o(i.RCC_AHB1PeriphClockCmd)
    i.RCC_AHB3PeriphClockCmd                 0x080017c4   Section        0  stm32f4xx_rcc.o(i.RCC_AHB3PeriphClockCmd)
    i.RCC_APB2PeriphClockCmd                 0x080017e4   Section        0  stm32f4xx_rcc.o(i.RCC_APB2PeriphClockCmd)
    i.RCC_GetClocksFreq                      0x08001804   Section        0  stm32f4xx_rcc.o(i.RCC_GetClocksFreq)
    i.STM32f4_Discovery_LCD_Init             0x080018ec   Section        0  stm32f4_discovery_lcd.o(i.STM32f4_Discovery_LCD_Init)
    i.SYSCFG_EXTILineConfig                  0x08001a4c   Section        0  stm32f4xx_syscfg.o(i.SYSCFG_EXTILineConfig)
    i.SystemInit                             0x08001a8c   Section        0  system_stm32f4xx.o(i.SystemInit)
    i.TM_DS1307_Bcd2Bin                      0x08001af0   Section        0  tm_stm32f4_ds1307.o(i.TM_DS1307_Bcd2Bin)
    i.TM_DS1307_Bin2Bcd                      0x08001b04   Section        0  tm_stm32f4_ds1307.o(i.TM_DS1307_Bin2Bcd)
    i.TM_DS1307_CheckMinMax                  0x08001b24   Section        0  tm_stm32f4_ds1307.o(i.TM_DS1307_CheckMinMax)
    i.TM_DS1307_GetDate                      0x08001b3c   Section        0  tm_stm32f4_ds1307.o(i.TM_DS1307_GetDate)
    i.TM_DS1307_GetDay                       0x08001b54   Section        0  tm_stm32f4_ds1307.o(i.TM_DS1307_GetDay)
    i.TM_DS1307_GetHours                     0x08001b6c   Section        0  tm_stm32f4_ds1307.o(i.TM_DS1307_GetHours)
    i.TM_DS1307_GetMinutes                   0x08001b84   Section        0  tm_stm32f4_ds1307.o(i.TM_DS1307_GetMinutes)
    i.TM_DS1307_GetMonth                     0x08001b9c   Section        0  tm_stm32f4_ds1307.o(i.TM_DS1307_GetMonth)
    i.TM_DS1307_GetSeconds                   0x08001bb4   Section        0  tm_stm32f4_ds1307.o(i.TM_DS1307_GetSeconds)
    i.TM_DS1307_GetYear                      0x08001bcc   Section        0  tm_stm32f4_ds1307.o(i.TM_DS1307_GetYear)
    i.TM_DS1307_Init                         0x08001be4   Section        0  tm_stm32f4_ds1307.o(i.TM_DS1307_Init)
    i.TM_DS1307_SetDate                      0x08001c0c   Section        0  tm_stm32f4_ds1307.o(i.TM_DS1307_SetDate)
    i.TM_DS1307_SetDay                       0x08001c34   Section        0  tm_stm32f4_ds1307.o(i.TM_DS1307_SetDay)
    i.TM_DS1307_SetHours                     0x08001c5c   Section        0  tm_stm32f4_ds1307.o(i.TM_DS1307_SetHours)
    i.TM_DS1307_SetMinutes                   0x08001c84   Section        0  tm_stm32f4_ds1307.o(i.TM_DS1307_SetMinutes)
    i.TM_DS1307_SetMonth                     0x08001cac   Section        0  tm_stm32f4_ds1307.o(i.TM_DS1307_SetMonth)
    i.TM_DS1307_SetSeconds                   0x08001cd4   Section        0  tm_stm32f4_ds1307.o(i.TM_DS1307_SetSeconds)
    i.TM_DS1307_SetYear                      0x08001cfc   Section        0  tm_stm32f4_ds1307.o(i.TM_DS1307_SetYear)
    i.TM_GPIO_GetPortSource                  0x08001d24   Section        0  tm_stm32f4_gpio.o(i.TM_GPIO_GetPortSource)
    i.TM_GPIO_INT_EnableClock                0x08001d34   Section        0  tm_stm32f4_gpio.o(i.TM_GPIO_INT_EnableClock)
    i.TM_GPIO_INT_Init                       0x08001d54   Section        0  tm_stm32f4_gpio.o(i.TM_GPIO_INT_Init)
    i.TM_GPIO_InitAlternate                  0x08001e04   Section        0  tm_stm32f4_gpio.o(i.TM_GPIO_InitAlternate)
    i.TM_I2C1_INT_InitPins                   0x08001e74   Section        0  tm_stm32f4_i2c.o(i.TM_I2C1_INT_InitPins)
    i.TM_I2C2_INT_InitPins                   0x08001ed8   Section        0  tm_stm32f4_i2c.o(i.TM_I2C2_INT_InitPins)
    i.TM_I2C3_INT_InitPins                   0x08001f40   Section        0  tm_stm32f4_i2c.o(i.TM_I2C3_INT_InitPins)
    i.TM_I2C_Init                            0x08001fa4   Section        0  tm_stm32f4_i2c.o(i.TM_I2C_Init)
    i.TM_I2C_IsDeviceConnected               0x080020b8   Section        0  tm_stm32f4_i2c.o(i.TM_I2C_IsDeviceConnected)
    i.TM_I2C_Read                            0x080020da   Section        0  tm_stm32f4_i2c.o(i.TM_I2C_Read)
    i.TM_I2C_ReadNack                        0x08002118   Section        0  tm_stm32f4_i2c.o(i.TM_I2C_ReadNack)
    i.TM_I2C_Start                           0x08002164   Section        0  tm_stm32f4_i2c.o(i.TM_I2C_Start)
    i.TM_I2C_Stop                            0x08002214   Section        0  tm_stm32f4_i2c.o(i.TM_I2C_Stop)
    i.TM_I2C_Write                           0x08002254   Section        0  tm_stm32f4_i2c.o(i.TM_I2C_Write)
    i.TM_I2C_WriteData                       0x08002288   Section        0  tm_stm32f4_i2c.o(i.TM_I2C_WriteData)
    i.Timer1_Callback                        0x080022b4   Section        0  timer.o(i.Timer1_Callback)
    Timer1_Callback                          0x080022b5   Thumb Code     8  timer.o(i.Timer1_Callback)
    i.Timer2_Callback                        0x080022c0   Section        0  timer.o(i.Timer2_Callback)
    Timer2_Callback                          0x080022c1   Thumb Code    22  timer.o(i.Timer2_Callback)
    i.USART6_IRQHandler                      0x080022e0   Section        0  main.o(i.USART6_IRQHandler)
    i.USART_Cmd                              0x080024fc   Section        0  stm32f4xx_usart.o(i.USART_Cmd)
    i.USART_GetFlagStatus                    0x08002514   Section        0  stm32f4xx_usart.o(i.USART_GetFlagStatus)
    i.USART_GetITStatus                      0x0800252e   Section        0  stm32f4xx_usart.o(i.USART_GetITStatus)
    i.USART_ITConfig                         0x08002582   Section        0  stm32f4xx_usart.o(i.USART_ITConfig)
    i.USART_Init                             0x080025cc   Section        0  stm32f4xx_usart.o(i.USART_Init)
    i.USART_SendData                         0x080026a0   Section        0  stm32f4xx_usart.o(i.USART_SendData)
    i.USART_puts                             0x080026a8   Section        0  main.o(i.USART_puts)
    i._init_box                              0x080026d8   Section        0  rt_membox.o(i._init_box)
    i._is_digit                              0x0800271e   Section        0  __printf_wp.o(i._is_digit)
    i._mutex_acquire                         0x0800272c   Section        0  rtx_conf_cm.o(i._mutex_acquire)
    __tagsym$$used                           0x0800272d   Number         0  rtx_conf_cm.o(i._mutex_acquire)
    i._mutex_release                         0x0800274c   Section        0  rtx_conf_cm.o(i._mutex_release)
    __tagsym$$used                           0x0800274d   Number         0  rtx_conf_cm.o(i._mutex_release)
    i.adc_init                               0x08002768   Section        0  adc.o(i.adc_init)
    i.adc_read                               0x080027c0   Section        0  adc.o(i.adc_read)
    i.adc_setup                              0x08002824   Section        0  adc.o(i.adc_setup)
    i.automation_thread                      0x08002888   Section        0  main.o(i.automation_thread)
    i.button                                 0x08002910   Section        0  main.o(i.button)
    i.change_theme                           0x08002a18   Section        0  main.o(i.change_theme)
    i.check_joy                              0x08002ac4   Section        0  main.o(i.check_joy)
    i.dbg_init                               0x08002ba8   Section        0  hal_cm.o(i.dbg_init)
    i.dbg_task_notify                        0x08002bd8   Section        0  hal_cm.o(i.dbg_task_notify)
    i.dbg_task_switch                        0x08002bf8   Section        0  hal_cm.o(i.dbg_task_switch)
    i.debug_line                             0x08002c08   Section        0  main.o(i.debug_line)
    i.delay                                  0x08002c2c   Section        0  stm32f4_discovery_lcd.o(i.delay)
    delay                                    0x08002c2d   Thumb Code    34  stm32f4_discovery_lcd.o(i.delay)
    i.draw_caption                           0x08002c50   Section        0  main.o(i.draw_caption)
    i.draw_date_time_bar                     0x08002cd0   Section        0  main.o(i.draw_date_time_bar)
    i.draw_menu                              0x08002d60   Section        0  main.o(i.draw_menu)
    i.draw_status_bar                        0x08002e24   Section        0  main.o(i.draw_status_bar)
    i.fan_thread                             0x08002ed8   Section        0  main.o(i.fan_thread)
    i.get_day                                0x08002f4c   Section        0  main.o(i.get_day)
    i.gpio_setup                             0x08002fd8   Section        0  adc.o(i.gpio_setup)
    i.init_LCD                               0x08003048   Section        0  main.o(i.init_LCD)
    i.init_RTC                               0x08003050   Section        0  main.o(i.init_RTC)
    i.init_USART6                            0x080030dc   Section        0  main.o(i.init_USART6)
    i.init_back                              0x08003188   Section        0  main.o(i.init_back)
    i.init_buzzer                            0x08003204   Section        0  main.o(i.init_buzzer)
    i.init_fan                               0x08003234   Section        0  main.o(i.init_fan)
    i.init_joystick                          0x080032dc   Section        0  main.o(i.init_joystick)
    i.init_lights                            0x08003348   Section        0  main.o(i.init_lights)
    i.init_pir                               0x08003384   Section        0  main.o(i.init_pir)
    i.init_room_struct                       0x080033ac   Section        0  main.o(i.init_room_struct)
    i.isrMessageGet                          0x080033bc   Section        0  rt_cmsis.o(i.isrMessageGet)
    i.isrMessagePut                          0x080033e6   Section        0  rt_cmsis.o(i.isrMessagePut)
    i.isrSignalSet                           0x08003412   Section        0  rt_cmsis.o(i.isrSignalSet)
    i.isr_evt_set                            0x08003438   Section        0  rt_event.o(i.isr_evt_set)
    i.isr_mbx_receive                        0x08003460   Section        0  rt_mailbox.o(i.isr_mbx_receive)
    i.isr_mbx_send                           0x080034b2   Section        0  rt_mailbox.o(i.isr_mbx_send)
    i.lighting_menu                          0x080034c0   Section        0  main.o(i.lighting_menu)
    i.lighting_room_submenu                  0x08003610   Section        0  main.o(i.lighting_room_submenu)
    i.main                                   0x080038d4   Section        0  main.o(i.main)
    i.main_menu                              0x080039a8   Section        0  main.o(i.main_menu)
    i.main_thread                            0x08003b00   Section        0  main.o(i.main_thread)
    i.osDelay                                0x08003b08   Section        0  rt_cmsis.o(i.osDelay)
    i.osKernelInitialize                     0x08003b20   Section        0  rt_cmsis.o(i.osKernelInitialize)
    i.osKernelStart                          0x08003b44   Section        0  rt_cmsis.o(i.osKernelStart)
    i.osMessageGet                           0x08003bb0   Section        0  rt_cmsis.o(i.osMessageGet)
    i.osSignalClear                          0x08003bc8   Section        0  rt_cmsis.o(i.osSignalClear)
    i.osSignalSet                            0x08003be0   Section        0  rt_cmsis.o(i.osSignalSet)
    i.osSignalWait                           0x08003bf8   Section        0  rt_cmsis.o(i.osSignalWait)
    i.osThreadCreate                         0x08003c10   Section        0  rt_cmsis.o(i.osThreadCreate)
    i.osThreadExit                           0x08003c40   Section        0  rt_cmsis.o(i.osThreadExit)
    i.osTimerCall                            0x08003c58   Section        0  rt_cmsis.o(i.osTimerCall)
    i.osTimerCreate                          0x08003c64   Section        0  rt_cmsis.o(i.osTimerCreate)
    i.osTimerStart                           0x08003c98   Section        0  rt_cmsis.o(i.osTimerStart)
    i.osTimerThread                          0x08003cb0   Section        0  rt_cmsis.o(i.osTimerThread)
    i.os_error                               0x08003cdc   Section        0  rtx_conf_cm.o(i.os_error)
    i.os_idle_demon                          0x08003cfc   Section        0  rtx_conf_cm.o(i.os_idle_demon)
    i.os_tick_init                           0x08003d00   Section        0  rt_system.o(i.os_tick_init)
    i.os_tick_irqack                         0x08003d28   Section        0  rt_system.o(i.os_tick_irqack)
    i.pir_thread                             0x08003d2c   Section        0  main.o(i.pir_thread)
    i.polling_thread                         0x08003e24   Section        0  main.o(i.polling_thread)
    i.read_joy                               0x08004058   Section        0  main.o(i.read_joy)
    i.room_struct_apply                      0x080040e4   Section        0  main.o(i.room_struct_apply)
    i.rt_alloc_box                           0x080040f8   Section        0  rt_membox.o(i.rt_alloc_box)
    i.rt_alloc_mem                           0x08004112   Section        0  rt_memory.o(i.rt_alloc_mem)
    i.rt_block                               0x08004150   Section        0  rt_task.o(i.rt_block)
    i.rt_chk_robin                           0x08004188   Section        0  rt_robin.o(i.rt_chk_robin)
    i.rt_dec_dly                             0x080041d0   Section        0  rt_list.o(i.rt_dec_dly)
    i.rt_dispatch                            0x08004240   Section        0  rt_task.o(i.rt_dispatch)
    i.rt_dly_wait                            0x08004284   Section        0  rt_time.o(i.rt_dly_wait)
    i.rt_evt_clr                             0x0800428c   Section        0  rt_event.o(i.rt_evt_clr)
    i.rt_evt_psh                             0x080042a8   Section        0  rt_event.o(i.rt_evt_psh)
    i.rt_evt_set                             0x080042f8   Section        0  rt_event.o(i.rt_evt_set)
    i.rt_evt_wait                            0x08004354   Section        0  rt_event.o(i.rt_evt_wait)
    i.rt_free_box                            0x08004390   Section        0  rt_membox.o(i.rt_free_box)
    i.rt_free_mem                            0x080043bc   Section        0  rt_memory.o(i.rt_free_mem)
    i.rt_get_first                           0x080043e4   Section        0  rt_list.o(i.rt_get_first)
    i.rt_id2obj                              0x0800440c   Section        0  rt_cmsis.o(i.rt_id2obj)
    rt_id2obj                                0x0800440d   Thumb Code     8  rt_cmsis.o(i.rt_id2obj)
    i.rt_init_context                        0x08004414   Section        0  rt_task.o(i.rt_init_context)
    rt_init_context                          0x08004415   Thumb Code    66  rt_task.o(i.rt_init_context)
    i.rt_init_mem                            0x0800445c   Section        0  rt_memory.o(i.rt_init_mem)
    i.rt_init_robin                          0x08004478   Section        0  rt_robin.o(i.rt_init_robin)
    i.rt_init_stack                          0x08004490   Section        0  hal_cm.o(i.rt_init_stack)
    i.rt_mbx_check                           0x08004510   Section        0  rt_mailbox.o(i.rt_mbx_check)
    i.rt_mbx_init                            0x08004518   Section        0  rt_mailbox.o(i.rt_mbx_init)
    i.rt_mbx_psh                             0x08004534   Section        0  rt_mailbox.o(i.rt_mbx_psh)
    i.rt_mbx_wait                            0x08004624   Section        0  rt_mailbox.o(i.rt_mbx_wait)
    i.rt_ms2tick                             0x080046d8   Section        0  rt_cmsis.o(i.rt_ms2tick)
    rt_ms2tick                               0x080046d9   Thumb Code    60  rt_cmsis.o(i.rt_ms2tick)
    i.rt_mut_release                         0x0800471c   Section        0  rt_mutex.o(i.rt_mut_release)
    i.rt_mut_wait                            0x080047f4   Section        0  rt_mutex.o(i.rt_mut_wait)
    i.rt_pop_req                             0x0800485c   Section        0  rt_system.o(i.rt_pop_req)
    i.rt_psh_req                             0x080048d8   Section        0  rt_system.o(i.rt_psh_req)
    i.rt_psq_enq                             0x080048f8   Section        0  rt_list.o(i.rt_psq_enq)
    i.rt_put_dly                             0x08004954   Section        0  rt_list.o(i.rt_put_dly)
    i.rt_put_prio                            0x0800499c   Section        0  rt_list.o(i.rt_put_prio)
    i.rt_put_rdy_first                       0x080049d4   Section        0  rt_list.o(i.rt_put_rdy_first)
    i.rt_resort_prio                         0x080049e8   Section        0  rt_list.o(i.rt_resort_prio)
    i.rt_ret_regs                            0x08004a1c   Section        0  hal_cm.o(i.rt_ret_regs)
    rt_ret_regs                              0x08004a1d   Thumb Code    16  hal_cm.o(i.rt_ret_regs)
    i.rt_ret_val                             0x08004a2c   Section        0  hal_cm.o(i.rt_ret_val)
    i.rt_ret_val2                            0x08004a38   Section        0  hal_cm.o(i.rt_ret_val2)
    i.rt_rmv_dly                             0x08004a48   Section        0  rt_list.o(i.rt_rmv_dly)
    i.rt_rmv_list                            0x08004a70   Section        0  rt_list.o(i.rt_rmv_list)
    i.rt_sem_psh                             0x08004aa0   Section        0  rt_semaphore.o(i.rt_sem_psh)
    i.rt_stk_check                           0x08004ad4   Section        0  rt_system.o(i.rt_stk_check)
    i.rt_switch_req                          0x08004af8   Section        0  rt_task.o(i.rt_switch_req)
    i.rt_sys_init                            0x08004b20   Section        0  rt_task.o(i.rt_sys_init)
    i.rt_sys_start                           0x08004bec   Section        0  rt_task.o(i.rt_sys_start)
    i.rt_systick                             0x08004c64   Section        0  rt_system.o(i.rt_systick)
    i.rt_tid2ptcb                            0x08004ca4   Section        0  rt_cmsis.o(i.rt_tid2ptcb)
    rt_tid2ptcb                              0x08004ca5   Thumb Code    18  rt_cmsis.o(i.rt_tid2ptcb)
    i.rt_timer_insert                        0x08004cb8   Section        0  rt_cmsis.o(i.rt_timer_insert)
    rt_timer_insert                          0x08004cb9   Thumb Code    48  rt_cmsis.o(i.rt_timer_insert)
    i.rt_timer_remove                        0x08004cec   Section        0  rt_cmsis.o(i.rt_timer_remove)
    rt_timer_remove                          0x08004ced   Thumb Code    56  rt_cmsis.o(i.rt_timer_remove)
    i.rt_tsk_create                          0x08004d28   Section        0  rt_task.o(i.rt_tsk_create)
    i.rt_tsk_delete                          0x08004db0   Section        0  rt_task.o(i.rt_tsk_delete)
    i.rt_tsk_prio                            0x08004f28   Section        0  rt_task.o(i.rt_tsk_prio)
    i.rt_tsk_self                            0x08004fa4   Section        0  rt_task.o(i.rt_tsk_self)
    i.settings_menu                          0x08004fb4   Section        0  main.o(i.settings_menu)
    i.settings_theme_submenu                 0x080050bc   Section        0  main.o(i.settings_theme_submenu)
    i.splash_screen                          0x0800528c   Section        0  main.o(i.splash_screen)
    i.svcDelay                               0x080052fc   Section        0  rt_cmsis.o(i.svcDelay)
    i.svcKernelInitialize                    0x08005310   Section        0  rt_cmsis.o(i.svcKernelInitialize)
    i.svcKernelStart                         0x08005380   Section        0  rt_cmsis.o(i.svcKernelStart)
    i.svcMessageCreate                       0x080053c8   Section        0  rt_cmsis.o(i.svcMessageCreate)
    i.svcMessageGet                          0x080053ec   Section        0  rt_cmsis.o(i.svcMessageGet)
    i.svcSignalClear                         0x08005426   Section        0  rt_cmsis.o(i.svcSignalClear)
    i.svcSignalSet                           0x0800544a   Section        0  rt_cmsis.o(i.svcSignalSet)
    i.svcSignalWait                          0x08005470   Section        0  rt_cmsis.o(i.svcSignalWait)
    i.svcThreadCreate                        0x080054c4   Section        0  rt_cmsis.o(i.svcThreadCreate)
    i.svcThreadGetId                         0x08005534   Section        0  rt_cmsis.o(i.svcThreadGetId)
    i.svcThreadTerminate                     0x08005550   Section        0  rt_cmsis.o(i.svcThreadTerminate)
    i.svcTimerCall                           0x08005588   Section        0  rt_cmsis.o(i.svcTimerCall)
    i.svcTimerCreate                         0x080055a0   Section        0  rt_cmsis.o(i.svcTimerCreate)
    i.svcTimerStart                          0x080055d8   Section        0  rt_cmsis.o(i.svcTimerStart)
    i.sysTimerTick                           0x0800563c   Section        0  rt_cmsis.o(i.sysTimerTick)
    i.timer_menu                             0x08005698   Section        0  main.o(i.timer_menu)
    i.update_bars                            0x08005968   Section        0  main.o(i.update_bars)
    x$fpl$fpinit                             0x08005a14   Section       10  fpinit.o(x$fpl$fpinit)
    $v0                                      0x08005a14   Number         0  fpinit.o(x$fpl$fpinit)
    .constdata                               0x08005a20   Section      424  main.o(.constdata)
    stm32f4_adc_pin_configuration            0x08005a20   Data         192  main.o(.constdata)
    .constdata                               0x08005bc8   Section       16  timer.o(.constdata)
    .constdata                               0x08005bd8   Section    10704  stm32f4_discovery_lcd.o(.constdata)
    .constdata                               0x080085a8   Section      192  adc.o(.constdata)
    stm32f4_adc_pin_configuration            0x080085a8   Data         192  adc.o(.constdata)
    .constdata                               0x08008668   Section       86  rtx_conf_cm.o(.constdata)
    __tagsym$$used                           0x08008684   Number         0  rtx_conf_cm.o(.constdata)
    __tagsym$$used                           0x08008688   Number         0  rtx_conf_cm.o(.constdata)
    __tagsym$$used                           0x0800868c   Number         0  rtx_conf_cm.o(.constdata)
    __tagsym$$used                           0x08008690   Number         0  rtx_conf_cm.o(.constdata)
    .constdata                               0x080086be   Section       17  __printf_flags_wp.o(.constdata)
    maptable                                 0x080086be   Data          17  __printf_flags_wp.o(.constdata)
    .conststring                             0x080086d0   Section      353  main.o(.conststring)
    .data                                    0x20000000   Section      120  main.o(.data)
    delay_value                              0x20000000   Data           4  main.o(.data)
    timer_value                              0x20000004   Data           4  main.o(.data)
    cnt                                      0x20000074   Data           4  main.o(.data)
    .data                                    0x20000078   Section       24  timer.o(.data)
    id1                                      0x20000080   Data           4  timer.o(.data)
    exec1                                    0x20000084   Data           4  timer.o(.data)
    id2                                      0x20000088   Data           4  timer.o(.data)
    exec2                                    0x2000008c   Data           4  timer.o(.data)
    .data                                    0x20000090   Section       16  stm32f4xx_rcc.o(.data)
    APBAHBPrescTable                         0x20000090   Data          16  stm32f4xx_rcc.o(.data)
    .data                                    0x200000a0   Section       40  stm32f4_discovery_lcd.o(.data)
    LCD_Currentfonts                         0x200000c0   Data           4  stm32f4_discovery_lcd.o(.data)
    TextColor                                0x200000c4   Data           2  stm32f4_discovery_lcd.o(.data)
    BackColor                                0x200000c6   Data           2  stm32f4_discovery_lcd.o(.data)
    .data                                    0x200000c8   Section       16  tm_stm32f4_i2c.o(.data)
    TM_I2C_Timeout                           0x200000c8   Data           4  tm_stm32f4_i2c.o(.data)
    TM_I2C_INT_Clocks                        0x200000cc   Data          12  tm_stm32f4_i2c.o(.data)
    .data                                    0x200000d8   Section       36  rtx_conf_cm.o(.data)
    nr_mutex                                 0x200000e8   Data           4  rtx_conf_cm.o(.data)
    .data                                    0x200000fc   Section        8  rt_cmsis.o(.data)
    .data                                    0x20000104   Section        8  rt_task.o(.data)
    .data                                    0x2000010c   Section        8  rt_system.o(.data)
    os_lock                                  0x2000010c   Data           1  rt_system.o(.data)
    os_psh_flag                              0x2000010d   Data           1  rt_system.o(.data)
    pend_flags                               0x2000010e   Data           1  rt_system.o(.data)
    .data                                    0x20000114   Section        4  rt_time.o(.data)
    .data                                    0x20000118   Section        8  rt_robin.o(.data)
    .data                                    0x20000120   Section        1  hal_cm.o(.data)
    .bss                                     0x20000124   Section       87  main.o(.bss)
    .bss                                     0x2000017c   Section       48  timer.o(.bss)
    os_timer_cb_Timer1                       0x2000017c   Data          24  timer.o(.bss)
    os_timer_cb_Timer2                       0x20000194   Data          24  timer.o(.bss)
    .bss                                     0x200001ac   Section       22  tm_stm32f4_gpio.o(.bss)
    GPIO_UsedPins                            0x200001ac   Data          22  tm_stm32f4_gpio.o(.bss)
    .bss                                     0x200001c8   Section    10772  rtx_conf_cm.o(.bss)
    std_libspace                             0x2000285c   Data         768  rtx_conf_cm.o(.bss)
    std_libmutex                             0x20002b5c   Data         128  rtx_conf_cm.o(.bss)
    .bss                                     0x20002bdc   Section       52  rt_task.o(.bss)
    .bss                                     0x20002c10   Section       48  rt_list.o(.bss)
    .bss                                     0x20002c40   Section       96  libspace.o(.bss)
    HEAP                                     0x20002ca0   Section      512  startup_stm32f407xx.o(HEAP)
    Heap_Mem                                 0x20002ca0   Data         512  startup_stm32f407xx.o(HEAP)
    STACK                                    0x20002ea0   Section     1024  startup_stm32f407xx.o(STACK)
    Stack_Mem                                0x20002ea0   Data        1024  startup_stm32f407xx.o(STACK)
    __initial_sp                             0x200032a0   Data           0  startup_stm32f407xx.o(STACK)

    Global Symbols

    Symbol Name                              Value     Ov Type        Size  Object(Section)

    BuildAttributes$$THM_ISAv4$E$P$D$K$B$S$7EM$VFPi3$EXTD16$VFPS$VFMA$PE$A:L22UL41UL21$X:L11$S22US41US21$IEEE1$IW$USESV6$~STKCKD$USESV7$~SHL$OSPACE$ROPI$EBA8$UX$STANDARDLIB$REQ8$PRES8$EABIv2 0x00000000   Number         0  anon$$obj.o ABSOLUTE
    __ARM_use_no_argv                        0x00000000   Number         0  main.o ABSOLUTE
    _printf_flags                            0x00000000   Number         0  printf_stubs.o ABSOLUTE
    _printf_return_value                     0x00000000   Number         0  printf_stubs.o ABSOLUTE
    _printf_sizespec                         0x00000000   Number         0  printf_stubs.o ABSOLUTE
    _printf_widthprec                        0x00000000   Number         0  printf_stubs.o ABSOLUTE
    TM_I2C_InitCustomPinsCallback             - Undefined Weak Reference
    __ARM_exceptions_init                     - Undefined Weak Reference
    __alloca_initialize                       - Undefined Weak Reference
    __arm_preinit_                            - Undefined Weak Reference
    __cpp_initialize__aeabi_                  - Undefined Weak Reference
    __cxa_finalize                            - Undefined Weak Reference
    __rt_locale                               - Undefined Weak Reference
    __sigvec_lookup                           - Undefined Weak Reference
    _atexit_init                              - Undefined Weak Reference
    _call_atexit_fns                          - Undefined Weak Reference
    _clock_init                               - Undefined Weak Reference
    _fp_trap_init                             - Undefined Weak Reference
    _fp_trap_shutdown                         - Undefined Weak Reference
    _get_lc_collate                           - Undefined Weak Reference
    _get_lc_ctype                             - Undefined Weak Reference
    _get_lc_monetary                          - Undefined Weak Reference
    _get_lc_numeric                           - Undefined Weak Reference
    _get_lc_time                              - Undefined Weak Reference
    _getenv_init                              - Undefined Weak Reference
    _handle_redirection                       - Undefined Weak Reference
    _init_alloc                               - Undefined Weak Reference
    _init_user_alloc                          - Undefined Weak Reference
    _initio                                   - Undefined Weak Reference
    _printf_mbtowc                            - Undefined Weak Reference
    _printf_truncate_signed                   - Undefined Weak Reference
    _printf_truncate_unsigned                 - Undefined Weak Reference
    _rand_init                                - Undefined Weak Reference
    _signal_finish                            - Undefined Weak Reference
    _signal_init                              - Undefined Weak Reference
    _terminate_alloc                          - Undefined Weak Reference
    _terminate_user_alloc                     - Undefined Weak Reference
    _terminateio                              - Undefined Weak Reference
    __Vectors_Size                           0x00000188   Number         0  startup_stm32f407xx.o ABSOLUTE
    __RL_RTX_VER                             0x00000479   Number         0  rt_system.o ABSOLUTE
    __Vectors                                0x08000000   Data           4  startup_stm32f407xx.o(RESET)
    __Vectors_End                            0x08000188   Data           0  startup_stm32f407xx.o(RESET)
    __main                                   0x08000189   Thumb Code     8  __main.o(!!!main)
    __scatterload                            0x08000191   Thumb Code     0  __scatter.o(!!!scatter)
    __scatterload_rt2                        0x08000191   Thumb Code    44  __scatter.o(!!!scatter)
    __scatterload_rt2_thumb_only             0x08000191   Thumb Code     0  __scatter.o(!!!scatter)
    __scatterload_null                       0x0800019f   Thumb Code     0  __scatter.o(!!!scatter)
    __scatterload_copy                       0x080001c5   Thumb Code    26  __scatter_copy.o(!!handler_copy)
    __scatterload_zeroinit                   0x080001e1   Thumb Code    28  __scatter_zi.o(!!handler_zi)
    _printf_d                                0x080001fd   Thumb Code     0  _printf_d.o(.ARM.Collect$$_printf_percent$$00000009)
    _printf_percent                          0x080001fd   Thumb Code     0  _printf_percent.o(.ARM.Collect$$_printf_percent$$00000000)
    _printf_s                                0x08000203   Thumb Code     0  _printf_s.o(.ARM.Collect$$_printf_percent$$00000014)
    _printf_percent_end                      0x08000209   Thumb Code     0  _printf_percent_end.o(.ARM.Collect$$_printf_percent$$00000017)
    __rt_lib_init                            0x0800020d   Thumb Code     0  libinit.o(.ARM.Collect$$libinit$$00000000)
    __rt_lib_init_fp_1                       0x0800020f   Thumb Code     0  libinit2.o(.ARM.Collect$$libinit$$00000001)
    __rt_lib_init_alloca_1                   0x08000213   Thumb Code     0  libinit2.o(.ARM.Collect$$libinit$$0000002E)
    __rt_lib_init_argv_1                     0x08000213   Thumb Code     0  libinit2.o(.ARM.Collect$$libinit$$0000002C)
    __rt_lib_init_atexit_1                   0x08000213   Thumb Code     0  libinit2.o(.ARM.Collect$$libinit$$0000001B)
    __rt_lib_init_clock_1                    0x08000213   Thumb Code     0  libinit2.o(.ARM.Collect$$libinit$$00000021)
    __rt_lib_init_cpp_1                      0x08000213   Thumb Code     0  libinit2.o(.ARM.Collect$$libinit$$00000032)
    __rt_lib_init_exceptions_1               0x08000213   Thumb Code     0  libinit2.o(.ARM.Collect$$libinit$$00000030)
    __rt_lib_init_fp_trap_1                  0x08000213   Thumb Code     0  libinit2.o(.ARM.Collect$$libinit$$0000001F)
    __rt_lib_init_getenv_1                   0x08000213   Thumb Code     0  libinit2.o(.ARM.Collect$$libinit$$00000023)
    __rt_lib_init_heap_1                     0x08000213   Thumb Code     0  libinit2.o(.ARM.Collect$$libinit$$0000000A)
    __rt_lib_init_lc_collate_1               0x08000213   Thumb Code     0  libinit2.o(.ARM.Collect$$libinit$$00000011)
    __rt_lib_init_lc_ctype_1                 0x08000213   Thumb Code     0  libinit2.o(.ARM.Collect$$libinit$$00000013)
    __rt_lib_init_lc_monetary_1              0x08000213   Thumb Code     0  libinit2.o(.ARM.Collect$$libinit$$00000015)
    __rt_lib_init_lc_numeric_1               0x08000213   Thumb Code     0  libinit2.o(.ARM.Collect$$libinit$$00000017)
    __rt_lib_init_lc_time_1                  0x08000213   Thumb Code     0  libinit2.o(.ARM.Collect$$libinit$$00000019)
    __rt_lib_init_preinit_1                  0x08000213   Thumb Code     0  libinit2.o(.ARM.Collect$$libinit$$00000004)
    __rt_lib_init_rand_1                     0x08000213   Thumb Code     0  libinit2.o(.ARM.Collect$$libinit$$0000000E)
    __rt_lib_init_return                     0x08000213   Thumb Code     0  libinit2.o(.ARM.Collect$$libinit$$00000033)
    __rt_lib_init_signal_1                   0x08000213   Thumb Code     0  libinit2.o(.ARM.Collect$$libinit$$0000001D)
    __rt_lib_init_stdio_1                    0x08000213   Thumb Code     0  libinit2.o(.ARM.Collect$$libinit$$00000025)
    __rt_lib_init_user_alloc_1               0x08000213   Thumb Code     0  libinit2.o(.ARM.Collect$$libinit$$0000000C)
    __rt_lib_shutdown                        0x08000215   Thumb Code     0  libshutdown.o(.ARM.Collect$$libshutdown$$00000000)
    __rt_lib_shutdown_cpp_1                  0x08000217   Thumb Code     0  libshutdown2.o(.ARM.Collect$$libshutdown$$00000002)
    __rt_lib_shutdown_fp_trap_1              0x08000217   Thumb Code     0  libshutdown2.o(.ARM.Collect$$libshutdown$$00000007)
    __rt_lib_shutdown_heap_1                 0x08000217   Thumb Code     0  libshutdown2.o(.ARM.Collect$$libshutdown$$0000000F)
    __rt_lib_shutdown_return                 0x08000217   Thumb Code     0  libshutdown2.o(.ARM.Collect$$libshutdown$$00000010)
    __rt_lib_shutdown_signal_1               0x08000217   Thumb Code     0  libshutdown2.o(.ARM.Collect$$libshutdown$$0000000A)
    __rt_lib_shutdown_stdio_1                0x08000217   Thumb Code     0  libshutdown2.o(.ARM.Collect$$libshutdown$$00000004)
    __rt_lib_shutdown_user_alloc_1           0x08000217   Thumb Code     0  libshutdown2.o(.ARM.Collect$$libshutdown$$0000000C)
    __rt_entry                               0x08000219   Thumb Code     0  __rtentry.o(.ARM.Collect$$rtentry$$00000000)
    __rt_entry_presh_1                       0x08000219   Thumb Code     0  __rtentry2.o(.ARM.Collect$$rtentry$$00000002)
    __rt_entry_sh                            0x08000219   Thumb Code     0  __rtentry4.o(.ARM.Collect$$rtentry$$00000004)
    __rt_entry_li                            0x0800021f   Thumb Code     0  __rtentry2.o(.ARM.Collect$$rtentry$$0000000A)
    __rt_entry_postsh_1                      0x0800021f   Thumb Code     0  __rtentry2.o(.ARM.Collect$$rtentry$$00000009)
    __rt_entry_postli_1                      0x08000223   Thumb Code     0  __rtentry2.o(.ARM.Collect$$rtentry$$0000000B)
    __rt_entry_main                          0x0800022b   Thumb Code     0  __rtentry2.o(.ARM.Collect$$rtentry$$0000000D)
    __rt_exit                                0x08000233   Thumb Code     0  rtexit.o(.ARM.Collect$$rtexit$$00000000)
    __rt_exit_ls                             0x08000235   Thumb Code     0  rtexit2.o(.ARM.Collect$$rtexit$$00000003)
    __rt_exit_prels_1                        0x08000235   Thumb Code     0  rtexit2.o(.ARM.Collect$$rtexit$$00000002)
    __rt_exit_exit                           0x08000239   Thumb Code     0  rtexit2.o(.ARM.Collect$$rtexit$$00000004)
    _platform_post_lib_init                  0x08000241   Thumb Code    24  rtx_conf_cm.o(.emb_text)
    rt_set_PSP                               0x0800025d   Thumb Code     6  hal_cm4.o(.emb_text)
    rt_get_PSP                               0x08000263   Thumb Code     6  hal_cm4.o(.emb_text)
    os_set_env                               0x08000269   Thumb Code    24  hal_cm4.o(.emb_text)
    _alloc_box                               0x08000285   Thumb Code    28  hal_cm4.o(.emb_text)
    _free_box                                0x080002a5   Thumb Code    28  hal_cm4.o(.emb_text)
    SVC_Handler                              0x080002c5   Thumb Code   168  hal_cm4.o(.emb_text)
    PendSV_Handler                           0x0800037d   Thumb Code    96  hal_cm4.o(.emb_text)
    SysTick_Handler                          0x080003e1   Thumb Code     8  hal_cm4.o(.emb_text)
    OS_Tick_Handler                          0x080003e9   Thumb Code    12  hal_cm4.o(.emb_text)
    Reset_Handler                            0x080003f5   Thumb Code     8  startup_stm32f407xx.o(.text)
    NMI_Handler                              0x080003fd   Thumb Code     2  startup_stm32f407xx.o(.text)
    HardFault_Handler                        0x080003ff   Thumb Code     2  startup_stm32f407xx.o(.text)
    MemManage_Handler                        0x08000401   Thumb Code     2  startup_stm32f407xx.o(.text)
    BusFault_Handler                         0x08000403   Thumb Code     2  startup_stm32f407xx.o(.text)
    UsageFault_Handler                       0x08000405   Thumb Code     2  startup_stm32f407xx.o(.text)
    DebugMon_Handler                         0x08000409   Thumb Code     2  startup_stm32f407xx.o(.text)
    ADC_IRQHandler                           0x0800040f   Thumb Code     0  startup_stm32f407xx.o(.text)
    CAN1_RX0_IRQHandler                      0x0800040f   Thumb Code     0  startup_stm32f407xx.o(.text)
    CAN1_RX1_IRQHandler                      0x0800040f   Thumb Code     0  startup_stm32f407xx.o(.text)
    CAN1_SCE_IRQHandler                      0x0800040f   Thumb Code     0  startup_stm32f407xx.o(.text)
    CAN1_TX_IRQHandler                       0x0800040f   Thumb Code     0  startup_stm32f407xx.o(.text)
    CAN2_RX0_IRQHandler                      0x0800040f   Thumb Code     0  startup_stm32f407xx.o(.text)
    CAN2_RX1_IRQHandler                      0x0800040f   Thumb Code     0  startup_stm32f407xx.o(.text)
    CAN2_SCE_IRQHandler                      0x0800040f   Thumb Code     0  startup_stm32f407xx.o(.text)
    CAN2_TX_IRQHandler                       0x0800040f   Thumb Code     0  startup_stm32f407xx.o(.text)
    DCMI_IRQHandler                          0x0800040f   Thumb Code     0  startup_stm32f407xx.o(.text)
    DMA1_Stream0_IRQHandler                  0x0800040f   Thumb Code     0  startup_stm32f407xx.o(.text)
    DMA1_Stream1_IRQHandler                  0x0800040f   Thumb Code     0  startup_stm32f407xx.o(.text)
    DMA1_Stream2_IRQHandler                  0x0800040f   Thumb Code     0  startup_stm32f407xx.o(.text)
    DMA1_Stream3_IRQHandler                  0x0800040f   Thumb Code     0  startup_stm32f407xx.o(.text)
    DMA1_Stream4_IRQHandler                  0x0800040f   Thumb Code     0  startup_stm32f407xx.o(.text)
    DMA1_Stream5_IRQHandler                  0x0800040f   Thumb Code     0  startup_stm32f407xx.o(.text)
    DMA1_Stream6_IRQHandler                  0x0800040f   Thumb Code     0  startup_stm32f407xx.o(.text)
    DMA1_Stream7_IRQHandler                  0x0800040f   Thumb Code     0  startup_stm32f407xx.o(.text)
    DMA2_Stream0_IRQHandler                  0x0800040f   Thumb Code     0  startup_stm32f407xx.o(.text)
    DMA2_Stream1_IRQHandler                  0x0800040f   Thumb Code     0  startup_stm32f407xx.o(.text)
    DMA2_Stream2_IRQHandler                  0x0800040f   Thumb Code     0  startup_stm32f407xx.o(.text)
    DMA2_Stream3_IRQHandler                  0x0800040f   Thumb Code     0  startup_stm32f407xx.o(.text)
    DMA2_Stream4_IRQHandler                  0x0800040f   Thumb Code     0  startup_stm32f407xx.o(.text)
    DMA2_Stream5_IRQHandler                  0x0800040f   Thumb Code     0  startup_stm32f407xx.o(.text)
    DMA2_Stream6_IRQHandler                  0x0800040f   Thumb Code     0  startup_stm32f407xx.o(.text)
    DMA2_Stream7_IRQHandler                  0x0800040f   Thumb Code     0  startup_stm32f407xx.o(.text)
    ETH_IRQHandler                           0x0800040f   Thumb Code     0  startup_stm32f407xx.o(.text)
    ETH_WKUP_IRQHandler                      0x0800040f   Thumb Code     0  startup_stm32f407xx.o(.text)
    EXTI1_IRQHandler                         0x0800040f   Thumb Code     0  startup_stm32f407xx.o(.text)
    EXTI2_IRQHandler                         0x0800040f   Thumb Code     0  startup_stm32f407xx.o(.text)
    EXTI3_IRQHandler                         0x0800040f   Thumb Code     0  startup_stm32f407xx.o(.text)
    EXTI4_IRQHandler                         0x0800040f   Thumb Code     0  startup_stm32f407xx.o(.text)
    EXTI9_5_IRQHandler                       0x0800040f   Thumb Code     0  startup_stm32f407xx.o(.text)
    FLASH_IRQHandler                         0x0800040f   Thumb Code     0  startup_stm32f407xx.o(.text)
    FMC_IRQHandler                           0x0800040f   Thumb Code     0  startup_stm32f407xx.o(.text)
    FPU_IRQHandler                           0x0800040f   Thumb Code     0  startup_stm32f407xx.o(.text)
    HASH_RNG_IRQHandler                      0x0800040f   Thumb Code     0  startup_stm32f407xx.o(.text)
    I2C1_ER_IRQHandler                       0x0800040f   Thumb Code     0  startup_stm32f407xx.o(.text)
    I2C1_EV_IRQHandler                       0x0800040f   Thumb Code     0  startup_stm32f407xx.o(.text)
    I2C2_ER_IRQHandler                       0x0800040f   Thumb Code     0  startup_stm32f407xx.o(.text)
    I2C2_EV_IRQHandler                       0x0800040f   Thumb Code     0  startup_stm32f407xx.o(.text)
    I2C3_ER_IRQHandler                       0x0800040f   Thumb Code     0  startup_stm32f407xx.o(.text)
    I2C3_EV_IRQHandler                       0x0800040f   Thumb Code     0  startup_stm32f407xx.o(.text)
    OTG_FS_IRQHandler                        0x0800040f   Thumb Code     0  startup_stm32f407xx.o(.text)
    OTG_FS_WKUP_IRQHandler                   0x0800040f   Thumb Code     0  startup_stm32f407xx.o(.text)
    OTG_HS_EP1_IN_IRQHandler                 0x0800040f   Thumb Code     0  startup_stm32f407xx.o(.text)
    OTG_HS_EP1_OUT_IRQHandler                0x0800040f   Thumb Code     0  startup_stm32f407xx.o(.text)
    OTG_HS_IRQHandler                        0x0800040f   Thumb Code     0  startup_stm32f407xx.o(.text)
    OTG_HS_WKUP_IRQHandler                   0x0800040f   Thumb Code     0  startup_stm32f407xx.o(.text)
    PVD_IRQHandler                           0x0800040f   Thumb Code     0  startup_stm32f407xx.o(.text)
    RCC_IRQHandler                           0x0800040f   Thumb Code     0  startup_stm32f407xx.o(.text)
    RTC_Alarm_IRQHandler                     0x0800040f   Thumb Code     0  startup_stm32f407xx.o(.text)
    RTC_WKUP_IRQHandler                      0x0800040f   Thumb Code     0  startup_stm32f407xx.o(.text)
    SDIO_IRQHandler                          0x0800040f   Thumb Code     0  startup_stm32f407xx.o(.text)
    SPI1_IRQHandler                          0x0800040f   Thumb Code     0  startup_stm32f407xx.o(.text)
    SPI2_IRQHandler                          0x0800040f   Thumb Code     0  startup_stm32f407xx.o(.text)
    SPI3_IRQHandler                          0x0800040f   Thumb Code     0  startup_stm32f407xx.o(.text)
    TAMP_STAMP_IRQHandler                    0x0800040f   Thumb Code     0  startup_stm32f407xx.o(.text)
    TIM1_BRK_TIM9_IRQHandler                 0x0800040f   Thumb Code     0  startup_stm32f407xx.o(.text)
    TIM1_CC_IRQHandler                       0x0800040f   Thumb Code     0  startup_stm32f407xx.o(.text)
    TIM1_TRG_COM_TIM11_IRQHandler            0x0800040f   Thumb Code     0  startup_stm32f407xx.o(.text)
    TIM1_UP_TIM10_IRQHandler                 0x0800040f   Thumb Code     0  startup_stm32f407xx.o(.text)
    TIM2_IRQHandler                          0x0800040f   Thumb Code     0  startup_stm32f407xx.o(.text)
    TIM3_IRQHandler                          0x0800040f   Thumb Code     0  startup_stm32f407xx.o(.text)
    TIM4_IRQHandler                          0x0800040f   Thumb Code     0  startup_stm32f407xx.o(.text)
    TIM5_IRQHandler                          0x0800040f   Thumb Code     0  startup_stm32f407xx.o(.text)
    TIM6_DAC_IRQHandler                      0x0800040f   Thumb Code     0  startup_stm32f407xx.o(.text)
    TIM7_IRQHandler                          0x0800040f   Thumb Code     0  startup_stm32f407xx.o(.text)
    TIM8_BRK_TIM12_IRQHandler                0x0800040f   Thumb Code     0  startup_stm32f407xx.o(.text)
    TIM8_CC_IRQHandler                       0x0800040f   Thumb Code     0  startup_stm32f407xx.o(.text)
    TIM8_TRG_COM_TIM14_IRQHandler            0x0800040f   Thumb Code     0  startup_stm32f407xx.o(.text)
    TIM8_UP_TIM13_IRQHandler                 0x0800040f   Thumb Code     0  startup_stm32f407xx.o(.text)
    UART4_IRQHandler                         0x0800040f   Thumb Code     0  startup_stm32f407xx.o(.text)
    UART5_IRQHandler                         0x0800040f   Thumb Code     0  startup_stm32f407xx.o(.text)
    USART1_IRQHandler                        0x0800040f   Thumb Code     0  startup_stm32f407xx.o(.text)
    USART2_IRQHandler                        0x0800040f   Thumb Code     0  startup_stm32f407xx.o(.text)
    USART3_IRQHandler                        0x0800040f   Thumb Code     0  startup_stm32f407xx.o(.text)
    WWDG_IRQHandler                          0x0800040f   Thumb Code     0  startup_stm32f407xx.o(.text)
    __user_initial_stackheap                 0x08000411   Thumb Code     0  startup_stm32f407xx.o(.text)
    __user_libspace                          0x08000435   Thumb Code     8  libspace.o(.text)
    __user_perproc_libspace                  0x08000435   Thumb Code     0  libspace.o(.text)
    __aeabi_uldivmod                         0x0800043d   Thumb Code     0  lludivv7m.o(.text)
    _ll_udiv                                 0x0800043d   Thumb Code   238  lludivv7m.o(.text)
    __2sprintf                               0x0800052d   Thumb Code    34  noretval__2sprintf.o(.text)
    _printf_pre_padding                      0x08000555   Thumb Code    44  _printf_pad.o(.text)
    _printf_post_padding                     0x08000581   Thumb Code    34  _printf_pad.o(.text)
    _printf_str                              0x080005a3   Thumb Code    82  _printf_str.o(.text)
    _printf_int_dec                          0x080005f5   Thumb Code   104  _printf_dec.o(.text)
    __printf                                 0x0800066d   Thumb Code   308  __printf_flags_wp.o(.text)
    exit                                     0x080007a5   Thumb Code    18  exit.o(.text)
    strstr                                   0x080007b7   Thumb Code    36  strstr.o(.text)
    strcpy                                   0x080007db   Thumb Code    72  strcpy.o(.text)
    strlen                                   0x08000823   Thumb Code    62  strlen.o(.text)
    __aeabi_memcpy4                          0x08000861   Thumb Code     0  rt_memcpy_w.o(.text)
    __aeabi_memcpy8                          0x08000861   Thumb Code     0  rt_memcpy_w.o(.text)
    __rt_memcpy_w                            0x08000861   Thumb Code   100  rt_memcpy_w.o(.text)
    _memcpy_lastbytes_aligned                0x080008a9   Thumb Code     0  rt_memcpy_w.o(.text)
    strcmp                                   0x080008c5   Thumb Code   128  strcmpv7m.o(.text)
    __use_two_region_memory                  0x08000945   Thumb Code     2  heapauxi.o(.text)
    __rt_heap_escrow$2region                 0x08000947   Thumb Code     2  heapauxi.o(.text)
    __rt_heap_expand$2region                 0x08000949   Thumb Code     2  heapauxi.o(.text)
    _printf_int_common                       0x0800094b   Thumb Code   178  _printf_intcommon.o(.text)
    _printf_char_common                      0x08000a07   Thumb Code    32  _printf_char_common.o(.text)
    _sputc                                   0x08000a2d   Thumb Code    10  _sputc.o(.text)
    _printf_cs_common                        0x08000a37   Thumb Code    20  _printf_char.o(.text)
    _printf_char                             0x08000a4b   Thumb Code    16  _printf_char.o(.text)
    _printf_string                           0x08000a5b   Thumb Code     8  _printf_char.o(.text)
    _sys_exit                                0x08000a65   Thumb Code     8  sys_exit.o(.text)
    __user_setup_stackheap                   0x08000a71   Thumb Code    74  sys_stackheap_outer.o(.text)
    __I$use$semihosting                      0x08000abb   Thumb Code     0  use_no_semi.o(.text)
    __use_no_semihosting_swi                 0x08000abb   Thumb Code     2  use_no_semi.o(.text)
    SVC_Count                                0x08000abc   Data           4  svc_table.o(SVC_TABLE)
    __semihosting_library_function           0x08000abd   Thumb Code     0  indicate_semi.o(.text)
    ADC_Cmd                                  0x08000ac1   Thumb Code    22  stm32f4xx_adc.o(i.ADC_Cmd)
    SVC_Table                                0x08000ac0   Data           0  svc_table.o(SVC_TABLE)
    ADC_CommonInit                           0x08000ad9   Thumb Code    34  stm32f4xx_adc.o(i.ADC_CommonInit)
    ADC_CommonStructInit                     0x08000b09   Thumb Code    12  stm32f4xx_adc.o(i.ADC_CommonStructInit)
    ADC_GetConversionValue                   0x08000b15   Thumb Code     8  stm32f4xx_adc.o(i.ADC_GetConversionValue)
    ADC_GetFlagStatus                        0x08000b1d   Thumb Code    18  stm32f4xx_adc.o(i.ADC_GetFlagStatus)
    ADC_Init                                 0x08000b31   Thumb Code    74  stm32f4xx_adc.o(i.ADC_Init)
    ADC_RegularChannelConfig                 0x08000b85   Thumb Code   184  stm32f4xx_adc.o(i.ADC_RegularChannelConfig)
    ADC_SoftwareStartConv                    0x08000c3d   Thumb Code    10  stm32f4xx_adc.o(i.ADC_SoftwareStartConv)
    ADC_StructInit                           0x08000c47   Thumb Code    20  stm32f4xx_adc.o(i.ADC_StructInit)
    EXTI0_IRQHandler                         0x08000c5d   Thumb Code    30  main.o(i.EXTI0_IRQHandler)
    EXTI15_10_IRQHandler                     0x08000c81   Thumb Code    84  main.o(i.EXTI15_10_IRQHandler)
    EXTI_ClearITPendingBit                   0x08000ce1   Thumb Code     6  stm32f4xx_exti.o(i.EXTI_ClearITPendingBit)
    EXTI_GetITStatus                         0x08000ced   Thumb Code    34  stm32f4xx_exti.o(i.EXTI_GetITStatus)
    EXTI_Init                                0x08000d15   Thumb Code   142  stm32f4xx_exti.o(i.EXTI_Init)
    FSMC_NORSRAMCmd                          0x08000da9   Thumb Code    46  stm32f4xx_fsmc.o(i.FSMC_NORSRAMCmd)
    FSMC_NORSRAMInit                         0x08000ddd   Thumb Code   230  stm32f4xx_fsmc.o(i.FSMC_NORSRAMInit)
    GPIO_Init                                0x08000ec3   Thumb Code   144  stm32f4xx_gpio.o(i.GPIO_Init)
    GPIO_PinAFConfig                         0x08000f53   Thumb Code    70  stm32f4xx_gpio.o(i.GPIO_PinAFConfig)
    GPIO_ReadInputDataBit                    0x08000f99   Thumb Code    18  stm32f4xx_gpio.o(i.GPIO_ReadInputDataBit)
    GPIO_ResetBits                           0x08000fab   Thumb Code     4  stm32f4xx_gpio.o(i.GPIO_ResetBits)
    GPIO_SetBits                             0x08000faf   Thumb Code     4  stm32f4xx_gpio.o(i.GPIO_SetBits)
    GPIO_StructInit                          0x08000fb3   Thumb Code    18  stm32f4xx_gpio.o(i.GPIO_StructInit)
    GPIO_WriteBit                            0x08000fc5   Thumb Code    10  stm32f4xx_gpio.o(i.GPIO_WriteBit)
    I2C_CheckEvent                           0x08000fcf   Thumb Code    42  stm32f4xx_i2c.o(i.I2C_CheckEvent)
    I2C_Init                                 0x08000ff9   Thumb Code   218  stm32f4xx_i2c.o(i.I2C_Init)
    Init_Timers                              0x080010e1   Thumb Code    88  timer.o(i.Init_Timers)
    LCD_Clear                                0x08001151   Thumb Code    36  stm32f4_discovery_lcd.o(i.LCD_Clear)
    LCD_CtrlLinesConfig                      0x08001179   Thumb Code   360  stm32f4_discovery_lcd.o(i.LCD_CtrlLinesConfig)
    LCD_DisplayChar                          0x080012e9   Thumb Code    42  stm32f4_discovery_lcd.o(i.LCD_DisplayChar)
    LCD_DisplayStringLine                    0x08001319   Thumb Code    50  stm32f4_discovery_lcd.o(i.LCD_DisplayStringLine)
    LCD_DrawChar                             0x08001351   Thumb Code   160  stm32f4_discovery_lcd.o(i.LCD_DrawChar)
    LCD_DrawCircle                           0x080013fd   Thumb Code   252  stm32f4_discovery_lcd.o(i.LCD_DrawCircle)
    LCD_DrawFullRect                         0x080014fd   Thumb Code   126  stm32f4_discovery_lcd.o(i.LCD_DrawFullRect)
    LCD_DrawLine                             0x08001585   Thumb Code    86  stm32f4_discovery_lcd.o(i.LCD_DrawLine)
    LCD_DrawRect                             0x080015e1   Thumb Code    66  stm32f4_discovery_lcd.o(i.LCD_DrawRect)
    LCD_FSMCConfig                           0x08001623   Thumb Code    94  stm32f4_discovery_lcd.o(i.LCD_FSMCConfig)
    LCD_GetColors                            0x08001681   Thumb Code    14  stm32f4_discovery_lcd.o(i.LCD_GetColors)
    LCD_GetFont                              0x08001699   Thumb Code     6  stm32f4_discovery_lcd.o(i.LCD_GetFont)
    LCD_SetBackColor                         0x080016a5   Thumb Code    12  stm32f4_discovery_lcd.o(i.LCD_SetBackColor)
    LCD_SetColors                            0x080016b5   Thumb Code    20  stm32f4_discovery_lcd.o(i.LCD_SetColors)
    LCD_SetCursor                            0x080016d1   Thumb Code    24  stm32f4_discovery_lcd.o(i.LCD_SetCursor)
    LCD_SetFont                              0x080016e9   Thumb Code     6  stm32f4_discovery_lcd.o(i.LCD_SetFont)
    LCD_SetTextColor                         0x080016f5   Thumb Code    12  stm32f4_discovery_lcd.o(i.LCD_SetTextColor)
    LCD_WriteRAM                             0x08001705   Thumb Code     6  stm32f4_discovery_lcd.o(i.LCD_WriteRAM)
    LCD_WriteRAM_Prepare                     0x08001711   Thumb Code    10  stm32f4_discovery_lcd.o(i.LCD_WriteRAM_Prepare)
    LCD_WriteReg                             0x0800171d   Thumb Code    12  stm32f4_discovery_lcd.o(i.LCD_WriteReg)
    NVIC_Init                                0x0800172d   Thumb Code   106  misc.o(i.NVIC_Init)
    RCC_AHB1PeriphClockCmd                   0x080017a5   Thumb Code    26  stm32f4xx_rcc.o(i.RCC_AHB1PeriphClockCmd)
    RCC_AHB3PeriphClockCmd                   0x080017c5   Thumb Code    26  stm32f4xx_rcc.o(i.RCC_AHB3PeriphClockCmd)
    RCC_APB2PeriphClockCmd                   0x080017e5   Thumb Code    26  stm32f4xx_rcc.o(i.RCC_APB2PeriphClockCmd)
    RCC_GetClocksFreq                        0x08001805   Thumb Code   214  stm32f4xx_rcc.o(i.RCC_GetClocksFreq)
    STM32f4_Discovery_LCD_Init               0x080018ed   Thumb Code   344  stm32f4_discovery_lcd.o(i.STM32f4_Discovery_LCD_Init)
    SYSCFG_EXTILineConfig                    0x08001a4d   Thumb Code    60  stm32f4xx_syscfg.o(i.SYSCFG_EXTILineConfig)
    SystemInit                               0x08001a8d   Thumb Code    82  system_stm32f4xx.o(i.SystemInit)
    TM_DS1307_Bcd2Bin                        0x08001af1   Thumb Code    20  tm_stm32f4_ds1307.o(i.TM_DS1307_Bcd2Bin)
    TM_DS1307_Bin2Bcd                        0x08001b05   Thumb Code    32  tm_stm32f4_ds1307.o(i.TM_DS1307_Bin2Bcd)
    TM_DS1307_CheckMinMax                    0x08001b25   Thumb Code    22  tm_stm32f4_ds1307.o(i.TM_DS1307_CheckMinMax)
    TM_DS1307_GetDate                        0x08001b3d   Thumb Code    20  tm_stm32f4_ds1307.o(i.TM_DS1307_GetDate)
    TM_DS1307_GetDay                         0x08001b55   Thumb Code    20  tm_stm32f4_ds1307.o(i.TM_DS1307_GetDay)
    TM_DS1307_GetHours                       0x08001b6d   Thumb Code    20  tm_stm32f4_ds1307.o(i.TM_DS1307_GetHours)
    TM_DS1307_GetMinutes                     0x08001b85   Thumb Code    20  tm_stm32f4_ds1307.o(i.TM_DS1307_GetMinutes)
    TM_DS1307_GetMonth                       0x08001b9d   Thumb Code    20  tm_stm32f4_ds1307.o(i.TM_DS1307_GetMonth)
    TM_DS1307_GetSeconds                     0x08001bb5   Thumb Code    20  tm_stm32f4_ds1307.o(i.TM_DS1307_GetSeconds)
    TM_DS1307_GetYear                        0x08001bcd   Thumb Code    20  tm_stm32f4_ds1307.o(i.TM_DS1307_GetYear)
    TM_DS1307_Init                           0x08001be5   Thumb Code    30  tm_stm32f4_ds1307.o(i.TM_DS1307_Init)
    TM_DS1307_SetDate                        0x08001c0d   Thumb Code    36  tm_stm32f4_ds1307.o(i.TM_DS1307_SetDate)
    TM_DS1307_SetDay                         0x08001c35   Thumb Code    36  tm_stm32f4_ds1307.o(i.TM_DS1307_SetDay)
    TM_DS1307_SetHours                       0x08001c5d   Thumb Code    36  tm_stm32f4_ds1307.o(i.TM_DS1307_SetHours)
    TM_DS1307_SetMinutes                     0x08001c85   Thumb Code    36  tm_stm32f4_ds1307.o(i.TM_DS1307_SetMinutes)
    TM_DS1307_SetMonth                       0x08001cad   Thumb Code    36  tm_stm32f4_ds1307.o(i.TM_DS1307_SetMonth)
    TM_DS1307_SetSeconds                     0x08001cd5   Thumb Code    36  tm_stm32f4_ds1307.o(i.TM_DS1307_SetSeconds)
    TM_DS1307_SetYear                        0x08001cfd   Thumb Code    36  tm_stm32f4_ds1307.o(i.TM_DS1307_SetYear)
    TM_GPIO_GetPortSource                    0x08001d25   Thumb Code    14  tm_stm32f4_gpio.o(i.TM_GPIO_GetPortSource)
    TM_GPIO_INT_EnableClock                  0x08001d35   Thumb Code    28  tm_stm32f4_gpio.o(i.TM_GPIO_INT_EnableClock)
    TM_GPIO_INT_Init                         0x08001d55   Thumb Code   170  tm_stm32f4_gpio.o(i.TM_GPIO_INT_Init)
    TM_GPIO_InitAlternate                    0x08001e05   Thumb Code   110  tm_stm32f4_gpio.o(i.TM_GPIO_InitAlternate)
    TM_I2C1_INT_InitPins                     0x08001e75   Thumb Code    90  tm_stm32f4_i2c.o(i.TM_I2C1_INT_InitPins)
    TM_I2C2_INT_InitPins                     0x08001ed9   Thumb Code    88  tm_stm32f4_i2c.o(i.TM_I2C2_INT_InitPins)
    TM_I2C3_INT_InitPins                     0x08001f41   Thumb Code    84  tm_stm32f4_i2c.o(i.TM_I2C3_INT_InitPins)
    TM_I2C_Init                              0x08001fa5   Thumb Code   254  tm_stm32f4_i2c.o(i.TM_I2C_Init)
    TM_I2C_IsDeviceConnected                 0x080020b9   Thumb Code    34  tm_stm32f4_i2c.o(i.TM_I2C_IsDeviceConnected)
    TM_I2C_Read                              0x080020db   Thumb Code    62  tm_stm32f4_i2c.o(i.TM_I2C_Read)
    TM_I2C_ReadNack                          0x08002119   Thumb Code    66  tm_stm32f4_i2c.o(i.TM_I2C_ReadNack)
    TM_I2C_Start                             0x08002165   Thumb Code   166  tm_stm32f4_i2c.o(i.TM_I2C_Start)
    TM_I2C_Stop                              0x08002215   Thumb Code    60  tm_stm32f4_i2c.o(i.TM_I2C_Stop)
    TM_I2C_Write                             0x08002255   Thumb Code    50  tm_stm32f4_i2c.o(i.TM_I2C_Write)
    TM_I2C_WriteData                         0x08002289   Thumb Code    40  tm_stm32f4_i2c.o(i.TM_I2C_WriteData)
    USART6_IRQHandler                        0x080022e1   Thumb Code   408  main.o(i.USART6_IRQHandler)
    USART_Cmd                                0x080024fd   Thumb Code    24  stm32f4xx_usart.o(i.USART_Cmd)
    USART_GetFlagStatus                      0x08002515   Thumb Code    26  stm32f4xx_usart.o(i.USART_GetFlagStatus)
    USART_GetITStatus                        0x0800252f   Thumb Code    84  stm32f4xx_usart.o(i.USART_GetITStatus)
    USART_ITConfig                           0x08002583   Thumb Code    74  stm32f4xx_usart.o(i.USART_ITConfig)
    USART_Init                               0x080025cd   Thumb Code   204  stm32f4xx_usart.o(i.USART_Init)
    USART_SendData                           0x080026a1   Thumb Code     8  stm32f4xx_usart.o(i.USART_SendData)
    USART_puts                               0x080026a9   Thumb Code    42  main.o(i.USART_puts)
    _init_box                                0x080026d9   Thumb Code    70  rt_membox.o(i._init_box)
    _is_digit                                0x0800271f   Thumb Code    14  __printf_wp.o(i._is_digit)
    _mutex_acquire                           0x0800272d   Thumb Code    22  rtx_conf_cm.o(i._mutex_acquire)
    _mutex_release                           0x0800274d   Thumb Code    18  rtx_conf_cm.o(i._mutex_release)
    adc_init                                 0x08002769   Thumb Code    84  adc.o(i.adc_init)
    adc_read                                 0x080027c1   Thumb Code    90  adc.o(i.adc_read)
    adc_setup                                0x08002825   Thumb Code    96  adc.o(i.adc_setup)
    automation_thread                        0x08002889   Thumb Code   118  main.o(i.automation_thread)
    button                                   0x08002911   Thumb Code   254  main.o(i.button)
    change_theme                             0x08002a19   Thumb Code   158  main.o(i.change_theme)
    check_joy                                0x08002ac5   Thumb Code   226  main.o(i.check_joy)
    dbg_init                                 0x08002ba9   Thumb Code    34  hal_cm.o(i.dbg_init)
    dbg_task_notify                          0x08002bd9   Thumb Code    32  hal_cm.o(i.dbg_task_notify)
    dbg_task_switch                          0x08002bf9   Thumb Code    16  hal_cm.o(i.dbg_task_switch)
    debug_line                               0x08002c09   Thumb Code    30  main.o(i.debug_line)
    draw_caption                             0x08002c51   Thumb Code   124  main.o(i.draw_caption)
    draw_date_time_bar                       0x08002cd1   Thumb Code    94  main.o(i.draw_date_time_bar)
    draw_menu                                0x08002d61   Thumb Code   192  main.o(i.draw_menu)
    draw_status_bar                          0x08002e25   Thumb Code   122  main.o(i.draw_status_bar)
    fan_thread                               0x08002ed9   Thumb Code    94  main.o(i.fan_thread)
    get_day                                  0x08002f4d   Thumb Code    62  main.o(i.get_day)
    gpio_setup                               0x08002fd9   Thumb Code    98  adc.o(i.gpio_setup)
    init_LCD                                 0x08003049   Thumb Code     8  main.o(i.init_LCD)
    init_RTC                                 0x08003051   Thumb Code   118  main.o(i.init_RTC)
    init_USART6                              0x080030dd   Thumb Code   164  main.o(i.init_USART6)
    init_back                                0x08003189   Thumb Code   118  main.o(i.init_back)
    init_buzzer                              0x08003205   Thumb Code    44  main.o(i.init_buzzer)
    init_fan                                 0x08003235   Thumb Code   162  main.o(i.init_fan)
    init_joystick                            0x080032dd   Thumb Code    90  main.o(i.init_joystick)
    init_lights                              0x08003349   Thumb Code    56  main.o(i.init_lights)
    init_pir                                 0x08003385   Thumb Code    36  main.o(i.init_pir)
    init_room_struct                         0x080033ad   Thumb Code    12  main.o(i.init_room_struct)
    isrMessageGet                            0x080033bd   Thumb Code    42  rt_cmsis.o(i.isrMessageGet)
    isrMessagePut                            0x080033e7   Thumb Code    44  rt_cmsis.o(i.isrMessagePut)
    isrSignalSet                             0x08003413   Thumb Code    36  rt_cmsis.o(i.isrSignalSet)
    isr_evt_set                              0x08003439   Thumb Code    34  rt_event.o(i.isr_evt_set)
    isr_mbx_receive                          0x08003461   Thumb Code    82  rt_mailbox.o(i.isr_mbx_receive)
    isr_mbx_send                             0x080034b3   Thumb Code    14  rt_mailbox.o(i.isr_mbx_send)
    lighting_menu                            0x080034c1   Thumb Code   318  main.o(i.lighting_menu)
    lighting_room_submenu                    0x08003611   Thumb Code   562  main.o(i.lighting_room_submenu)
    main                                     0x080038d5   Thumb Code   160  main.o(i.main)
    main_menu                                0x080039a9   Thumb Code   332  main.o(i.main_menu)
    main_thread                              0x08003b01   Thumb Code     8  main.o(i.main_thread)
    osDelay                                  0x08003b09   Thumb Code    18  rt_cmsis.o(i.osDelay)
    osKernelInitialize                       0x08003b21   Thumb Code    30  rt_cmsis.o(i.osKernelInitialize)
    osKernelStart                            0x08003b45   Thumb Code    98  rt_cmsis.o(i.osKernelStart)
    osMessageGet                             0x08003bb1   Thumb Code    18  rt_cmsis.o(i.osMessageGet)
    osSignalClear                            0x08003bc9   Thumb Code    20  rt_cmsis.o(i.osSignalClear)
    osSignalSet                              0x08003be1   Thumb Code    18  rt_cmsis.o(i.osSignalSet)
    osSignalWait                             0x08003bf9   Thumb Code    18  rt_cmsis.o(i.osSignalWait)
    osThreadCreate                           0x08003c11   Thumb Code    38  rt_cmsis.o(i.osThreadCreate)
    osThreadExit                             0x08003c41   Thumb Code    14  rt_cmsis.o(i.osThreadExit)
    osTimerCall                              0x08003c59   Thumb Code     8  rt_cmsis.o(i.osTimerCall)
    osTimerCreate                            0x08003c65   Thumb Code    44  rt_cmsis.o(i.osTimerCreate)
    osTimerStart                             0x08003c99   Thumb Code    18  rt_cmsis.o(i.osTimerStart)
    osTimerThread                            0x08003cb1   Thumb Code    38  rt_cmsis.o(i.osTimerThread)
    os_error                                 0x08003cdd   Thumb Code    32  rtx_conf_cm.o(i.os_error)
    os_idle_demon                            0x08003cfd   Thumb Code     4  rtx_conf_cm.o(i.os_idle_demon)
    os_tick_init                             0x08003d01   Thumb Code    32  rt_system.o(i.os_tick_init)
    os_tick_irqack                           0x08003d29   Thumb Code     2  rt_system.o(i.os_tick_irqack)
    pir_thread                               0x08003d2d   Thumb Code   164  main.o(i.pir_thread)
    polling_thread                           0x08003e25   Thumb Code   466  main.o(i.polling_thread)
    read_joy                                 0x08004059   Thumb Code   126  main.o(i.read_joy)
    room_struct_apply                        0x080040e5   Thumb Code    14  main.o(i.room_struct_apply)
    rt_alloc_box                             0x080040f9   Thumb Code    26  rt_membox.o(i.rt_alloc_box)
    rt_alloc_mem                             0x08004113   Thumb Code    62  rt_memory.o(i.rt_alloc_mem)
    rt_block                                 0x08004151   Thumb Code    48  rt_task.o(i.rt_block)
    rt_chk_robin                             0x08004189   Thumb Code    60  rt_robin.o(i.rt_chk_robin)
    rt_dec_dly                               0x080041d1   Thumb Code   102  rt_list.o(i.rt_dec_dly)
    rt_dispatch                              0x08004241   Thumb Code    60  rt_task.o(i.rt_dispatch)
    rt_dly_wait                              0x08004285   Thumb Code     6  rt_time.o(i.rt_dly_wait)
    rt_evt_clr                               0x0800428d   Thumb Code    22  rt_event.o(i.rt_evt_clr)
    rt_evt_psh                               0x080042a9   Thumb Code    76  rt_event.o(i.rt_evt_psh)
    rt_evt_set                               0x080042f9   Thumb Code    88  rt_event.o(i.rt_evt_set)
    rt_evt_wait                              0x08004355   Thumb Code    56  rt_event.o(i.rt_evt_wait)
    rt_free_box                              0x08004391   Thumb Code    44  rt_membox.o(i.rt_free_box)
    rt_free_mem                              0x080043bd   Thumb Code    40  rt_memory.o(i.rt_free_mem)
    rt_get_first                             0x080043e5   Thumb Code    40  rt_list.o(i.rt_get_first)
    rt_init_mem                              0x0800445d   Thumb Code    26  rt_memory.o(i.rt_init_mem)
    rt_init_robin                            0x08004479   Thumb Code    14  rt_robin.o(i.rt_init_robin)
    rt_init_stack                            0x08004491   Thumb Code   118  hal_cm.o(i.rt_init_stack)
    rt_mbx_check                             0x08004511   Thumb Code     8  rt_mailbox.o(i.rt_mbx_check)
    rt_mbx_init                              0x08004519   Thumb Code    26  rt_mailbox.o(i.rt_mbx_init)
    rt_mbx_psh                               0x08004535   Thumb Code   236  rt_mailbox.o(i.rt_mbx_psh)
    rt_mbx_wait                              0x08004625   Thumb Code   174  rt_mailbox.o(i.rt_mbx_wait)
    rt_mut_release                           0x0800471d   Thumb Code   208  rt_mutex.o(i.rt_mut_release)
    rt_mut_wait                              0x080047f5   Thumb Code   100  rt_mutex.o(i.rt_mut_wait)
    rt_pop_req                               0x0800485d   Thumb Code   112  rt_system.o(i.rt_pop_req)
    rt_psh_req                               0x080048d9   Thumb Code    22  rt_system.o(i.rt_psh_req)
    rt_psq_enq                               0x080048f9   Thumb Code    88  rt_list.o(i.rt_psq_enq)
    rt_put_dly                               0x08004955   Thumb Code    68  rt_list.o(i.rt_put_dly)
    rt_put_prio                              0x0800499d   Thumb Code    54  rt_list.o(i.rt_put_prio)
    rt_put_rdy_first                         0x080049d5   Thumb Code    14  rt_list.o(i.rt_put_rdy_first)
    rt_resort_prio                           0x080049e9   Thumb Code    46  rt_list.o(i.rt_resort_prio)
    rt_ret_val                               0x08004a2d   Thumb Code    12  hal_cm.o(i.rt_ret_val)
    rt_ret_val2                              0x08004a39   Thumb Code    16  hal_cm.o(i.rt_ret_val2)
    rt_rmv_dly                               0x08004a49   Thumb Code    40  rt_list.o(i.rt_rmv_dly)
    rt_rmv_list                              0x08004a71   Thumb Code    44  rt_list.o(i.rt_rmv_list)
    rt_sem_psh                               0x08004aa1   Thumb Code    48  rt_semaphore.o(i.rt_sem_psh)
    rt_stk_check                             0x08004ad5   Thumb Code    28  rt_system.o(i.rt_stk_check)
    rt_switch_req                            0x08004af9   Thumb Code    30  rt_task.o(i.rt_switch_req)
    rt_sys_init                              0x08004b21   Thumb Code   138  rt_task.o(i.rt_sys_init)
    rt_sys_start                             0x08004bed   Thumb Code   110  rt_task.o(i.rt_sys_start)
    rt_systick                               0x08004c65   Thumb Code    50  rt_system.o(i.rt_systick)
    rt_tsk_create                            0x08004d29   Thumb Code   120  rt_task.o(i.rt_tsk_create)
    rt_tsk_delete                            0x08004db1   Thumb Code   346  rt_task.o(i.rt_tsk_delete)
    rt_tsk_prio                              0x08004f29   Thumb Code   108  rt_task.o(i.rt_tsk_prio)
    rt_tsk_self                              0x08004fa5   Thumb Code    12  rt_task.o(i.rt_tsk_self)
    settings_menu                            0x08004fb5   Thumb Code   248  main.o(i.settings_menu)
    settings_theme_submenu                   0x080050bd   Thumb Code   446  main.o(i.settings_theme_submenu)
    splash_screen                            0x0800528d   Thumb Code    78  main.o(i.splash_screen)
    svcDelay                                 0x080052fd   Thumb Code    18  rt_cmsis.o(i.svcDelay)
    svcKernelInitialize                      0x08005311   Thumb Code    80  rt_cmsis.o(i.svcKernelInitialize)
    svcKernelStart                           0x08005381   Thumb Code    62  rt_cmsis.o(i.svcKernelStart)
    svcMessageCreate                         0x080053c9   Thumb Code    36  rt_cmsis.o(i.svcMessageCreate)
    svcMessageGet                            0x080053ed   Thumb Code    58  rt_cmsis.o(i.svcMessageGet)
    svcSignalClear                           0x08005427   Thumb Code    36  rt_cmsis.o(i.svcSignalClear)
    svcSignalSet                             0x0800544b   Thumb Code    36  rt_cmsis.o(i.svcSignalSet)
    svcSignalWait                            0x08005471   Thumb Code    80  rt_cmsis.o(i.svcSignalWait)
    svcThreadCreate                          0x080054c5   Thumb Code   100  rt_cmsis.o(i.svcThreadCreate)
    svcThreadGetId                           0x08005535   Thumb Code    22  rt_cmsis.o(i.svcThreadGetId)
    svcThreadTerminate                       0x08005551   Thumb Code    50  rt_cmsis.o(i.svcThreadTerminate)
    svcTimerCall                             0x08005589   Thumb Code    24  rt_cmsis.o(i.svcTimerCall)
    svcTimerCreate                           0x080055a1   Thumb Code    52  rt_cmsis.o(i.svcTimerCreate)
    svcTimerStart                            0x080055d9   Thumb Code    96  rt_cmsis.o(i.svcTimerStart)
    sysTimerTick                             0x0800563d   Thumb Code    84  rt_cmsis.o(i.sysTimerTick)
    timer_menu                               0x08005699   Thumb Code   674  main.o(i.timer_menu)
    update_bars                              0x08005969   Thumb Code   154  main.o(i.update_bars)
    _fp_init                                 0x08005a15   Thumb Code    10  fpinit.o(x$fpl$fpinit)
    __fplib_config_fpu_vfp                   0x08005a1d   Thumb Code     0  fpinit.o(x$fpl$fpinit)
    __fplib_config_pureend_doubles           0x08005a1d   Thumb Code     0  fpinit.o(x$fpl$fpinit)
    joy_x                                    0x08005ae0   Data          12  main.o(.constdata)
    joy_y                                    0x08005aec   Data          12  main.o(.constdata)
    ldr                                      0x08005af8   Data          12  main.o(.constdata)
    temp                                     0x08005b04   Data          12  main.o(.constdata)
    os_thread_def_main_thread                0x08005b10   Data          16  main.o(.constdata)
    os_thread_def_update_bars                0x08005b20   Data          16  main.o(.constdata)
    os_thread_def_automation_thread          0x08005b30   Data          16  main.o(.constdata)
    os_thread_def_polling_thread             0x08005b40   Data          16  main.o(.constdata)
    os_thread_def_fan_thread                 0x08005b50   Data          16  main.o(.constdata)
    os_thread_def_pir_thread                 0x08005b60   Data          16  main.o(.constdata)
    os_timer_def_Timer1                      0x08005bc8   Data           8  timer.o(.constdata)
    os_timer_def_Timer2                      0x08005bd0   Data           8  timer.o(.constdata)
    ASCII16x24_Table                         0x08005bd8   Data        4560  stm32f4_discovery_lcd.o(.constdata)
    ASCII12x12_Table                         0x08006da8   Data        2304  stm32f4_discovery_lcd.o(.constdata)
    ASCII8x12_Table                          0x080076a8   Data        2304  stm32f4_discovery_lcd.o(.constdata)
    ASCII8x8_Table                           0x08007fa8   Data        1536  stm32f4_discovery_lcd.o(.constdata)
    os_maxtaskrun                            0x08008668   Data           2  rtx_conf_cm.o(.constdata)
    os_stackinfo                             0x0800866c   Data           4  rtx_conf_cm.o(.constdata)
    os_rrobin                                0x08008670   Data           4  rtx_conf_cm.o(.constdata)
    os_tickfreq                              0x08008674   Data           4  rtx_conf_cm.o(.constdata)
    os_tickus_i                              0x08008678   Data           2  rtx_conf_cm.o(.constdata)
    os_tickus_f                              0x0800867a   Data           2  rtx_conf_cm.o(.constdata)
    os_trv                                   0x0800867c   Data           4  rtx_conf_cm.o(.constdata)
    os_flags                                 0x08008680   Data           1  rtx_conf_cm.o(.constdata)
    CMSIS_RTOS_API_Version                   0x08008684   Data           4  rtx_conf_cm.o(.constdata)
    CMSIS_RTOS_RTX_Version                   0x08008688   Data           4  rtx_conf_cm.o(.constdata)
    os_clockrate                             0x0800868c   Data           4  rtx_conf_cm.o(.constdata)
    os_timernum                              0x08008690   Data           4  rtx_conf_cm.o(.constdata)
    mp_tcb_size                              0x08008694   Data           2  rtx_conf_cm.o(.constdata)
    mp_stk_size                              0x08008698   Data           4  rtx_conf_cm.o(.constdata)
    os_stack_sz                              0x0800869c   Data           4  rtx_conf_cm.o(.constdata)
    os_fifo_size                             0x080086a0   Data           1  rtx_conf_cm.o(.constdata)
    os_thread_def_osTimerThread              0x080086a4   Data          16  rtx_conf_cm.o(.constdata)
    os_messageQ_def_osTimerMessageQ          0x080086b4   Data           8  rtx_conf_cm.o(.constdata)
    mp_tmr_size                              0x080086bc   Data           2  rtx_conf_cm.o(.constdata)
    Region$$Table$$Base                      0x08008834   Number         0  anon$$obj.o(Region$$Table)
    Region$$Table$$Limit                     0x08008854   Number         0  anon$$obj.o(Region$$Table)
    manual                                   0x20000008   Data           1  main.o(.data)
    timer                                    0x20000009   Data           1  main.o(.data)
    ldr_value                                0x2000000c   Data           4  main.o(.data)
    temp_value                               0x20000010   Data           4  main.o(.data)
    pir_value                                0x20000014   Data           1  main.o(.data)
    x                                        0x20000018   Data           4  main.o(.data)
    y                                        0x2000001c   Data           4  main.o(.data)
    k                                        0x20000020   Data           4  main.o(.data)
    room1                                    0x20000024   Data           3  main.o(.data)
    timer_main                               0x20000027   Data           2  main.o(.data)
    time                                     0x20000029   Data           7  main.o(.data)
    def_theme                                0x20000030   Data          10  main.o(.data)
    status                                   0x2000003c   Data          16  main.o(.data)
    thread_id                                0x2000004c   Data           4  main.o(.data)
    thread_automation                        0x20000050   Data           4  main.o(.data)
    thread_fan                               0x20000054   Data           4  main.o(.data)
    thread_pir                               0x20000058   Data           4  main.o(.data)
    back                                     0x2000005c   Data           4  main.o(.data)
    joy                                      0x20000060   Data           4  main.o(.data)
    i                                        0x20000064   Data           4  main.o(.data)
    speed                                    0x20000068   Data           4  main.o(.data)
    fan                                      0x2000006c   Data           4  main.o(.data)
    intruder                                 0x20000070   Data           1  main.o(.data)
    timer2                                   0x20000078   Data           4  timer.o(.data)
    timer1                                   0x2000007c   Data           4  timer.o(.data)
    Font16x24                                0x200000a0   Data           8  stm32f4_discovery_lcd.o(.data)
    Font12x12                                0x200000a8   Data           8  stm32f4_discovery_lcd.o(.data)
    Font8x12                                 0x200000b0   Data           8  stm32f4_discovery_lcd.o(.data)
    Font8x8                                  0x200000b8   Data           8  stm32f4_discovery_lcd.o(.data)
    osThreadId_osTimerThread                 0x200000d8   Data           4  rtx_conf_cm.o(.data)
    osMessageQId_osTimerMessageQ             0x200000dc   Data           4  rtx_conf_cm.o(.data)
    os_tmr                                   0x200000e0   Data           4  rtx_conf_cm.o(.data)
    m_tmr                                    0x200000e4   Data           4  rtx_conf_cm.o(.data)
    os_thread_def_main                       0x200000ec   Data          16  rtx_conf_cm.o(.data)
    os_initialized                           0x200000fc   Data           1  rt_cmsis.o(.data)
    os_running                               0x200000fd   Data           1  rt_cmsis.o(.data)
    os_timer_head                            0x20000100   Data           4  rt_cmsis.o(.data)
    os_tsk                                   0x20000104   Data           8  rt_task.o(.data)
    os_tick_irqn                             0x20000110   Data           4  rt_system.o(.data)
    os_time                                  0x20000114   Data           4  rt_time.o(.data)
    os_robin                                 0x20000118   Data           8  rt_robin.o(.data)
    dbg_msg                                  0x20000120   Data           1  hal_cm.o(.data)
    received_str                             0x20000124   Data          26  main.o(.bss)
    print_array                              0x2000013e   Data          41  main.o(.bss)
    debug_array                              0x20000167   Data          20  main.o(.bss)
    mp_tcb                                   0x200001c8   Data         428  rtx_conf_cm.o(.bss)
    mp_stk                                   0x20000378   Data        7016  rtx_conf_cm.o(.bss)
    os_stack_mem                             0x20001ee0   Data        2232  rtx_conf_cm.o(.bss)
    os_fifo                                  0x20002798   Data         132  rtx_conf_cm.o(.bss)
    os_active_TCB                            0x2000281c   Data          32  rtx_conf_cm.o(.bss)
    os_messageQ_q_osTimerMessageQ            0x2000283c   Data          32  rtx_conf_cm.o(.bss)
    os_idle_TCB                              0x20002bdc   Data          52  rt_task.o(.bss)
    os_rdy                                   0x20002c10   Data          24  rt_list.o(.bss)
    os_dly                                   0x20002c28   Data          24  rt_list.o(.bss)
    __libspace_start                         0x20002c40   Data          96  libspace.o(.bss)
    __temporary_stack_top$libspace           0x20002ca0   Data           0  libspace.o(.bss)



==============================================================================

Memory Map of the image

  Image Entry point : 0x080003f5

  Load Region LR_1 (Base: 0x08000000, Size: 0x00008978, Max: 0xffffffff, ABSOLUTE)

    Execution Region ER_RO (Base: 0x08000000, Size: 0x00008854, Max: 0xffffffff, ABSOLUTE)

    Base Addr    Size         Type   Attr      Idx    E Section Name        Object

    0x08000000   0x00000188   Data   RO         2699    RESET               startup_stm32f407xx.o
    0x08000188   0x00000008   Code   RO         4016  * !!!main             c_w.l(__main.o)
    0x08000190   0x00000034   Code   RO         4203    !!!scatter          c_w.l(__scatter.o)
    0x080001c4   0x0000001a   Code   RO         4205    !!handler_copy      c_w.l(__scatter_copy.o)
    0x080001de   0x00000002   PAD
    0x080001e0   0x0000001c   Code   RO         4207    !!handler_zi        c_w.l(__scatter_zi.o)
    0x080001fc   0x00000000   Code   RO         4001    .ARM.Collect$$_printf_percent$$00000000  c_w.l(_printf_percent.o)
    0x080001fc   0x00000006   Code   RO         4000    .ARM.Collect$$_printf_percent$$00000009  c_w.l(_printf_d.o)
    0x08000202   0x00000006   Code   RO         3999    .ARM.Collect$$_printf_percent$$00000014  c_w.l(_printf_s.o)
    0x08000208   0x00000004   Code   RO         4043    .ARM.Collect$$_printf_percent$$00000017  c_w.l(_printf_percent_end.o)
    0x0800020c   0x00000002   Code   RO         4089    .ARM.Collect$$libinit$$00000000  c_w.l(libinit.o)
    0x0800020e   0x00000004   Code   RO         4100    .ARM.Collect$$libinit$$00000001  c_w.l(libinit2.o)
    0x08000212   0x00000000   Code   RO         4103    .ARM.Collect$$libinit$$00000004  c_w.l(libinit2.o)
    0x08000212   0x00000000   Code   RO         4106    .ARM.Collect$$libinit$$0000000A  c_w.l(libinit2.o)
    0x08000212   0x00000000   Code   RO         4108    .ARM.Collect$$libinit$$0000000C  c_w.l(libinit2.o)
    0x08000212   0x00000000   Code   RO         4110    .ARM.Collect$$libinit$$0000000E  c_w.l(libinit2.o)
    0x08000212   0x00000000   Code   RO         4113    .ARM.Collect$$libinit$$00000011  c_w.l(libinit2.o)
    0x08000212   0x00000000   Code   RO         4115    .ARM.Collect$$libinit$$00000013  c_w.l(libinit2.o)
    0x08000212   0x00000000   Code   RO         4117    .ARM.Collect$$libinit$$00000015  c_w.l(libinit2.o)
    0x08000212   0x00000000   Code   RO         4119    .ARM.Collect$$libinit$$00000017  c_w.l(libinit2.o)
    0x08000212   0x00000000   Code   RO         4121    .ARM.Collect$$libinit$$00000019  c_w.l(libinit2.o)
    0x08000212   0x00000000   Code   RO         4123    .ARM.Collect$$libinit$$0000001B  c_w.l(libinit2.o)
    0x08000212   0x00000000   Code   RO         4125    .ARM.Collect$$libinit$$0000001D  c_w.l(libinit2.o)
    0x08000212   0x00000000   Code   RO         4127    .ARM.Collect$$libinit$$0000001F  c_w.l(libinit2.o)
    0x08000212   0x00000000   Code   RO         4129    .ARM.Collect$$libinit$$00000021  c_w.l(libinit2.o)
    0x08000212   0x00000000   Code   RO         4131    .ARM.Collect$$libinit$$00000023  c_w.l(libinit2.o)
    0x08000212   0x00000000   Code   RO         4133    .ARM.Collect$$libinit$$00000025  c_w.l(libinit2.o)
    0x08000212   0x00000000   Code   RO         4137    .ARM.Collect$$libinit$$0000002C  c_w.l(libinit2.o)
    0x08000212   0x00000000   Code   RO         4139    .ARM.Collect$$libinit$$0000002E  c_w.l(libinit2.o)
    0x08000212   0x00000000   Code   RO         4141    .ARM.Collect$$libinit$$00000030  c_w.l(libinit2.o)
    0x08000212   0x00000000   Code   RO         4143    .ARM.Collect$$libinit$$00000032  c_w.l(libinit2.o)
    0x08000212   0x00000002   Code   RO         4144    .ARM.Collect$$libinit$$00000033  c_w.l(libinit2.o)
    0x08000214   0x00000002   Code   RO         4090    .ARM.Collect$$libshutdown$$00000000  c_w.l(libshutdown.o)
    0x08000216   0x00000000   Code   RO         4146    .ARM.Collect$$libshutdown$$00000002  c_w.l(libshutdown2.o)
    0x08000216   0x00000000   Code   RO         4148    .ARM.Collect$$libshutdown$$00000004  c_w.l(libshutdown2.o)
    0x08000216   0x00000000   Code   RO         4151    .ARM.Collect$$libshutdown$$00000007  c_w.l(libshutdown2.o)
    0x08000216   0x00000000   Code   RO         4154    .ARM.Collect$$libshutdown$$0000000A  c_w.l(libshutdown2.o)
    0x08000216   0x00000000   Code   RO         4156    .ARM.Collect$$libshutdown$$0000000C  c_w.l(libshutdown2.o)
    0x08000216   0x00000000   Code   RO         4159    .ARM.Collect$$libshutdown$$0000000F  c_w.l(libshutdown2.o)
    0x08000216   0x00000002   Code   RO         4160    .ARM.Collect$$libshutdown$$00000010  c_w.l(libshutdown2.o)
    0x08000218   0x00000000   Code   RO         4028    .ARM.Collect$$rtentry$$00000000  c_w.l(__rtentry.o)
    0x08000218   0x00000000   Code   RO         4050    .ARM.Collect$$rtentry$$00000002  c_w.l(__rtentry2.o)
    0x08000218   0x00000006   Code   RO         4062    .ARM.Collect$$rtentry$$00000004  c_w.l(__rtentry4.o)
    0x0800021e   0x00000000   Code   RO         4052    .ARM.Collect$$rtentry$$00000009  c_w.l(__rtentry2.o)
    0x0800021e   0x00000004   Code   RO         4053    .ARM.Collect$$rtentry$$0000000A  c_w.l(__rtentry2.o)
    0x08000222   0x00000008   Code   RO         4054    .ARM.Collect$$rtentry$$0000000B  c_w.l(__rtentry2.o)
    0x0800022a   0x00000008   Code   RO         4056    .ARM.Collect$$rtentry$$0000000D  c_w.l(__rtentry2.o)
    0x08000232   0x00000002   Code   RO         4029    .ARM.Collect$$rtexit$$00000000  c_w.l(rtexit.o)
    0x08000234   0x00000000   Code   RO         4065    .ARM.Collect$$rtexit$$00000002  c_w.l(rtexit2.o)
    0x08000234   0x00000004   Code   RO         4066    .ARM.Collect$$rtexit$$00000003  c_w.l(rtexit2.o)
    0x08000238   0x00000006   Code   RO         4067    .ARM.Collect$$rtexit$$00000004  c_w.l(rtexit2.o)
    0x0800023e   0x00000002   PAD
    0x08000240   0x0000001c   Code   RO         2639    .emb_text           rtx_conf_cm.o
    0x0800025c   0x00000198   Code   RO         3947    .emb_text           RTX_CM4.lib(hal_cm4.o)
    0x080003f4   0x00000040   Code   RO         2700  * .text               startup_stm32f407xx.o
    0x08000434   0x00000008   Code   RO         3962    .text               c_w.l(libspace.o)
    0x0800043c   0x000000ee   Code   RO         3965    .text               c_w.l(lludivv7m.o)
    0x0800052a   0x00000002   PAD
    0x0800052c   0x00000028   Code   RO         3969    .text               c_w.l(noretval__2sprintf.o)
    0x08000554   0x0000004e   Code   RO         3973    .text               c_w.l(_printf_pad.o)
    0x080005a2   0x00000052   Code   RO         3975    .text               c_w.l(_printf_str.o)
    0x080005f4   0x00000078   Code   RO         3977    .text               c_w.l(_printf_dec.o)
    0x0800066c   0x00000138   Code   RO         3991    .text               c_w.l(__printf_flags_wp.o)
    0x080007a4   0x00000012   Code   RO         4002    .text               c_w.l(exit.o)
    0x080007b6   0x00000024   Code   RO         4004    .text               c_w.l(strstr.o)
    0x080007da   0x00000048   Code   RO         4006    .text               c_w.l(strcpy.o)
    0x08000822   0x0000003e   Code   RO         4008    .text               c_w.l(strlen.o)
    0x08000860   0x00000064   Code   RO         4010    .text               c_w.l(rt_memcpy_w.o)
    0x080008c4   0x00000080   Code   RO         4012    .text               c_w.l(strcmpv7m.o)
    0x08000944   0x00000006   Code   RO         4014    .text               c_w.l(heapauxi.o)
    0x0800094a   0x000000b2   Code   RO         4035    .text               c_w.l(_printf_intcommon.o)
    0x080009fc   0x00000030   Code   RO         4037    .text               c_w.l(_printf_char_common.o)
    0x08000a2c   0x0000000a   Code   RO         4039    .text               c_w.l(_sputc.o)
    0x08000a36   0x0000002c   Code   RO         4041    .text               c_w.l(_printf_char.o)
    0x08000a62   0x00000002   PAD
    0x08000a64   0x0000000c   Code   RO         4075    .text               c_w.l(sys_exit.o)
    0x08000a70   0x0000004a   Code   RO         4077    .text               c_w.l(sys_stackheap_outer.o)
    0x08000aba   0x00000002   Code   RO         4091    .text               c_w.l(use_no_semi.o)
    0x08000abc   0x00000000   Code   RO         4093    .text               c_w.l(indicate_semi.o)
    0x08000abc   0x00000004   Code   RO         3957    SVC_TABLE           RTX_CM4.lib(svc_table.o)
    0x08000ac0   0x00000016   Code   RO          616    i.ADC_Cmd           stm32f4xx_adc.o
    0x08000ad6   0x00000002   PAD
    0x08000ad8   0x00000030   Code   RO          617    i.ADC_CommonInit    stm32f4xx_adc.o
    0x08000b08   0x0000000c   Code   RO          618    i.ADC_CommonStructInit  stm32f4xx_adc.o
    0x08000b14   0x00000008   Code   RO          628    i.ADC_GetConversionValue  stm32f4xx_adc.o
    0x08000b1c   0x00000012   Code   RO          629    i.ADC_GetFlagStatus  stm32f4xx_adc.o
    0x08000b2e   0x00000002   PAD
    0x08000b30   0x00000054   Code   RO          636    i.ADC_Init          stm32f4xx_adc.o
    0x08000b84   0x000000b8   Code   RO          641    i.ADC_RegularChannelConfig  stm32f4xx_adc.o
    0x08000c3c   0x0000000a   Code   RO          643    i.ADC_SoftwareStartConv  stm32f4xx_adc.o
    0x08000c46   0x00000014   Code   RO          645    i.ADC_StructInit    stm32f4xx_adc.o
    0x08000c5a   0x00000002   PAD
    0x08000c5c   0x00000024   Code   RO            4    i.EXTI0_IRQHandler  main.o
    0x08000c80   0x00000060   Code   RO            5    i.EXTI15_10_IRQHandler  main.o
    0x08000ce0   0x0000000c   Code   RO         1657    i.EXTI_ClearITPendingBit  stm32f4xx_exti.o
    0x08000cec   0x00000028   Code   RO         1661    i.EXTI_GetITStatus  stm32f4xx_exti.o
    0x08000d14   0x00000094   Code   RO         1662    i.EXTI_Init         stm32f4xx_exti.o
    0x08000da8   0x00000034   Code   RO          870    i.FSMC_NORSRAMCmd   stm32f4xx_fsmc.o
    0x08000ddc   0x000000e6   Code   RO          872    i.FSMC_NORSRAMInit  stm32f4xx_fsmc.o
    0x08000ec2   0x00000090   Code   RO          995    i.GPIO_Init         stm32f4xx_gpio.o
    0x08000f52   0x00000046   Code   RO          996    i.GPIO_PinAFConfig  stm32f4xx_gpio.o
    0x08000f98   0x00000012   Code   RO          999    i.GPIO_ReadInputDataBit  stm32f4xx_gpio.o
    0x08000faa   0x00000004   Code   RO         1002    i.GPIO_ResetBits    stm32f4xx_gpio.o
    0x08000fae   0x00000004   Code   RO         1003    i.GPIO_SetBits      stm32f4xx_gpio.o
    0x08000fb2   0x00000012   Code   RO         1004    i.GPIO_StructInit   stm32f4xx_gpio.o
    0x08000fc4   0x0000000a   Code   RO         1007    i.GPIO_WriteBit     stm32f4xx_gpio.o
    0x08000fce   0x0000002a   Code   RO         1099    i.I2C_CheckEvent    stm32f4xx_i2c.o
    0x08000ff8   0x000000e8   Code   RO         1116    i.I2C_Init          stm32f4xx_i2c.o
    0x080010e0   0x00000070   Code   RO          438    i.Init_Timers       timer.o
    0x08001150   0x00000028   Code   RO         1920    i.LCD_Clear         stm32f4_discovery_lcd.o
    0x08001178   0x00000170   Code   RO         1924    i.LCD_CtrlLinesConfig  stm32f4_discovery_lcd.o
    0x080012e8   0x00000030   Code   RO         1926    i.LCD_DisplayChar   stm32f4_discovery_lcd.o
    0x08001318   0x00000038   Code   RO         1929    i.LCD_DisplayStringLine  stm32f4_discovery_lcd.o
    0x08001350   0x000000ac   Code   RO         1930    i.LCD_DrawChar      stm32f4_discovery_lcd.o
    0x080013fc   0x00000100   Code   RO         1931    i.LCD_DrawCircle    stm32f4_discovery_lcd.o
    0x080014fc   0x00000088   Code   RO         1933    i.LCD_DrawFullRect  stm32f4_discovery_lcd.o
    0x08001584   0x0000005c   Code   RO         1934    i.LCD_DrawLine      stm32f4_discovery_lcd.o
    0x080015e0   0x00000042   Code   RO         1936    i.LCD_DrawRect      stm32f4_discovery_lcd.o
    0x08001622   0x0000005e   Code   RO         1938    i.LCD_FSMCConfig    stm32f4_discovery_lcd.o
    0x08001680   0x00000018   Code   RO         1940    i.LCD_GetColors     stm32f4_discovery_lcd.o
    0x08001698   0x0000000c   Code   RO         1941    i.LCD_GetFont       stm32f4_discovery_lcd.o
    0x080016a4   0x00000010   Code   RO         1948    i.LCD_SetBackColor  stm32f4_discovery_lcd.o
    0x080016b4   0x0000001c   Code   RO         1949    i.LCD_SetColors     stm32f4_discovery_lcd.o
    0x080016d0   0x00000018   Code   RO         1950    i.LCD_SetCursor     stm32f4_discovery_lcd.o
    0x080016e8   0x0000000c   Code   RO         1952    i.LCD_SetFont       stm32f4_discovery_lcd.o
    0x080016f4   0x00000010   Code   RO         1953    i.LCD_SetTextColor  stm32f4_discovery_lcd.o
    0x08001704   0x0000000c   Code   RO         1956    i.LCD_WriteRAM      stm32f4_discovery_lcd.o
    0x08001710   0x0000000a   Code   RO         1957    i.LCD_WriteRAM_Prepare  stm32f4_discovery_lcd.o
    0x0800171a   0x00000002   PAD
    0x0800171c   0x00000010   Code   RO         1958    i.LCD_WriteReg      stm32f4_discovery_lcd.o
    0x0800172c   0x00000078   Code   RO          556    i.NVIC_Init         misc.o
    0x080017a4   0x00000020   Code   RO         1315    i.RCC_AHB1PeriphClockCmd  stm32f4xx_rcc.o
    0x080017c4   0x00000020   Code   RO         1321    i.RCC_AHB3PeriphClockCmd  stm32f4xx_rcc.o
    0x080017e4   0x00000020   Code   RO         1327    i.RCC_APB2PeriphClockCmd  stm32f4xx_rcc.o
    0x08001804   0x000000e8   Code   RO         1336    i.RCC_GetClocksFreq  stm32f4xx_rcc.o
    0x080018ec   0x00000160   Code   RO         1960    i.STM32f4_Discovery_LCD_Init  stm32f4_discovery_lcd.o
    0x08001a4c   0x00000040   Code   RO         1605    i.SYSCFG_EXTILineConfig  stm32f4xx_syscfg.o
    0x08001a8c   0x00000064   Code   RO         2708    i.SystemInit        system_stm32f4xx.o
    0x08001af0   0x00000014   Code   RO         2245    i.TM_DS1307_Bcd2Bin  tm_stm32f4_ds1307.o
    0x08001b04   0x00000020   Code   RO         2246    i.TM_DS1307_Bin2Bcd  tm_stm32f4_ds1307.o
    0x08001b24   0x00000016   Code   RO         2247    i.TM_DS1307_CheckMinMax  tm_stm32f4_ds1307.o
    0x08001b3a   0x00000002   PAD
    0x08001b3c   0x00000018   Code   RO         2250    i.TM_DS1307_GetDate  tm_stm32f4_ds1307.o
    0x08001b54   0x00000018   Code   RO         2252    i.TM_DS1307_GetDay  tm_stm32f4_ds1307.o
    0x08001b6c   0x00000018   Code   RO         2253    i.TM_DS1307_GetHours  tm_stm32f4_ds1307.o
    0x08001b84   0x00000018   Code   RO         2254    i.TM_DS1307_GetMinutes  tm_stm32f4_ds1307.o
    0x08001b9c   0x00000018   Code   RO         2255    i.TM_DS1307_GetMonth  tm_stm32f4_ds1307.o
    0x08001bb4   0x00000018   Code   RO         2256    i.TM_DS1307_GetSeconds  tm_stm32f4_ds1307.o
    0x08001bcc   0x00000018   Code   RO         2257    i.TM_DS1307_GetYear  tm_stm32f4_ds1307.o
    0x08001be4   0x00000028   Code   RO         2258    i.TM_DS1307_Init    tm_stm32f4_ds1307.o
    0x08001c0c   0x00000028   Code   RO         2259    i.TM_DS1307_SetDate  tm_stm32f4_ds1307.o
    0x08001c34   0x00000028   Code   RO         2261    i.TM_DS1307_SetDay  tm_stm32f4_ds1307.o
    0x08001c5c   0x00000028   Code   RO         2262    i.TM_DS1307_SetHours  tm_stm32f4_ds1307.o
    0x08001c84   0x00000028   Code   RO         2263    i.TM_DS1307_SetMinutes  tm_stm32f4_ds1307.o
    0x08001cac   0x00000028   Code   RO         2264    i.TM_DS1307_SetMonth  tm_stm32f4_ds1307.o
    0x08001cd4   0x00000028   Code   RO         2265    i.TM_DS1307_SetSeconds  tm_stm32f4_ds1307.o
    0x08001cfc   0x00000028   Code   RO         2266    i.TM_DS1307_SetYear  tm_stm32f4_ds1307.o
    0x08001d24   0x0000000e   Code   RO         2401    i.TM_GPIO_GetPortSource  tm_stm32f4_gpio.o
    0x08001d32   0x00000002   PAD
    0x08001d34   0x00000020   Code   RO         2404    i.TM_GPIO_INT_EnableClock  tm_stm32f4_gpio.o
    0x08001d54   0x000000b0   Code   RO         2405    i.TM_GPIO_INT_Init  tm_stm32f4_gpio.o
    0x08001e04   0x0000006e   Code   RO         2407    i.TM_GPIO_InitAlternate  tm_stm32f4_gpio.o
    0x08001e72   0x00000002   PAD
    0x08001e74   0x00000064   Code   RO         2514    i.TM_I2C1_INT_InitPins  tm_stm32f4_i2c.o
    0x08001ed8   0x00000068   Code   RO         2515    i.TM_I2C2_INT_InitPins  tm_stm32f4_i2c.o
    0x08001f40   0x00000064   Code   RO         2516    i.TM_I2C3_INT_InitPins  tm_stm32f4_i2c.o
    0x08001fa4   0x00000114   Code   RO         2517    i.TM_I2C_Init       tm_stm32f4_i2c.o
    0x080020b8   0x00000022   Code   RO         2518    i.TM_I2C_IsDeviceConnected  tm_stm32f4_i2c.o
    0x080020da   0x0000003e   Code   RO         2519    i.TM_I2C_Read       tm_stm32f4_i2c.o
    0x08002118   0x0000004c   Code   RO         2523    i.TM_I2C_ReadNack   tm_stm32f4_i2c.o
    0x08002164   0x000000b0   Code   RO         2525    i.TM_I2C_Start      tm_stm32f4_i2c.o
    0x08002214   0x00000040   Code   RO         2526    i.TM_I2C_Stop       tm_stm32f4_i2c.o
    0x08002254   0x00000032   Code   RO         2527    i.TM_I2C_Write      tm_stm32f4_i2c.o
    0x08002286   0x00000002   PAD
    0x08002288   0x0000002c   Code   RO         2528    i.TM_I2C_WriteData  tm_stm32f4_i2c.o
    0x080022b4   0x0000000c   Code   RO          439    i.Timer1_Callback   timer.o
    0x080022c0   0x00000020   Code   RO          440    i.Timer2_Callback   timer.o
    0x080022e0   0x0000021c   Code   RO            6    i.USART6_IRQHandler  main.o
    0x080024fc   0x00000018   Code   RO         1729    i.USART_Cmd         stm32f4xx_usart.o
    0x08002514   0x0000001a   Code   RO         1732    i.USART_GetFlagStatus  stm32f4xx_usart.o
    0x0800252e   0x00000054   Code   RO         1733    i.USART_GetITStatus  stm32f4xx_usart.o
    0x08002582   0x0000004a   Code   RO         1735    i.USART_ITConfig    stm32f4xx_usart.o
    0x080025cc   0x000000d4   Code   RO         1736    i.USART_Init        stm32f4xx_usart.o
    0x080026a0   0x00000008   Code   RO         1746    i.USART_SendData    stm32f4xx_usart.o
    0x080026a8   0x00000030   Code   RO            8    i.USART_puts        main.o
    0x080026d8   0x00000046   Code   RO         3841    i._init_box         RTX_CM4.lib(rt_membox.o)
    0x0800271e   0x0000000e   Code   RO         3989    i._is_digit         c_w.l(__printf_wp.o)
    0x0800272c   0x00000020   Code   RO         2641    i._mutex_acquire    rtx_conf_cm.o
    0x0800274c   0x0000001c   Code   RO         2643    i._mutex_release    rtx_conf_cm.o
    0x08002768   0x00000058   Code   RO         2197    i.adc_init          adc.o
    0x080027c0   0x00000064   Code   RO         2198    i.adc_read          adc.o
    0x08002824   0x00000064   Code   RO         2199    i.adc_setup         adc.o
    0x08002888   0x00000088   Code   RO            9    i.automation_thread  main.o
    0x08002910   0x00000108   Code   RO           10    i.button            main.o
    0x08002a18   0x000000ac   Code   RO           11    i.change_theme      main.o
    0x08002ac4   0x000000e2   Code   RO           12    i.check_joy         main.o
    0x08002ba6   0x00000002   PAD
    0x08002ba8   0x00000030   Code   RO         3894    i.dbg_init          RTX_CM4.lib(hal_cm.o)
    0x08002bd8   0x00000020   Code   RO         3895    i.dbg_task_notify   RTX_CM4.lib(hal_cm.o)
    0x08002bf8   0x00000010   Code   RO         3896    i.dbg_task_switch   RTX_CM4.lib(hal_cm.o)
    0x08002c08   0x00000024   Code   RO           13    i.debug_line        main.o
    0x08002c2c   0x00000022   Code   RO         1961    i.delay             stm32f4_discovery_lcd.o
    0x08002c4e   0x00000002   PAD
    0x08002c50   0x00000080   Code   RO           14    i.draw_caption      main.o
    0x08002cd0   0x00000090   Code   RO           15    i.draw_date_time_bar  main.o
    0x08002d60   0x000000c4   Code   RO           16    i.draw_menu         main.o
    0x08002e24   0x000000b4   Code   RO           17    i.draw_status_bar   main.o
    0x08002ed8   0x00000074   Code   RO           18    i.fan_thread        main.o
    0x08002f4c   0x0000008c   Code   RO           19    i.get_day           main.o
    0x08002fd8   0x00000070   Code   RO         2200    i.gpio_setup        adc.o
    0x08003048   0x00000008   Code   RO           20    i.init_LCD          main.o
    0x08003050   0x0000008c   Code   RO           21    i.init_RTC          main.o
    0x080030dc   0x000000ac   Code   RO           22    i.init_USART6       main.o
    0x08003188   0x0000007c   Code   RO           23    i.init_back         main.o
    0x08003204   0x00000030   Code   RO           24    i.init_buzzer       main.o
    0x08003234   0x000000a8   Code   RO           25    i.init_fan          main.o
    0x080032dc   0x0000006c   Code   RO           26    i.init_joystick     main.o
    0x08003348   0x0000003c   Code   RO           27    i.init_lights       main.o
    0x08003384   0x00000028   Code   RO           28    i.init_pir          main.o
    0x080033ac   0x00000010   Code   RO           29    i.init_room_struct  main.o
    0x080033bc   0x0000002a   Code   RO         2744    i.isrMessageGet     RTX_CM4.lib(rt_cmsis.o)
    0x080033e6   0x0000002c   Code   RO         2745    i.isrMessagePut     RTX_CM4.lib(rt_cmsis.o)
    0x08003412   0x00000024   Code   RO         2747    i.isrSignalSet      RTX_CM4.lib(rt_cmsis.o)
    0x08003436   0x00000002   PAD
    0x08003438   0x00000028   Code   RO         3578    i.isr_evt_set       RTX_CM4.lib(rt_event.o)
    0x08003460   0x00000052   Code   RO         3696    i.isr_mbx_receive   RTX_CM4.lib(rt_mailbox.o)
    0x080034b2   0x0000000e   Code   RO         3697    i.isr_mbx_send      RTX_CM4.lib(rt_mailbox.o)
    0x080034c0   0x00000150   Code   RO           30    i.lighting_menu     main.o
    0x08003610   0x000002c4   Code   RO           31    i.lighting_room_submenu  main.o
    0x080038d4   0x000000d4   Code   RO           32    i.main              main.o
    0x080039a8   0x00000158   Code   RO           33    i.main_menu         main.o
    0x08003b00   0x00000008   Code   RO           34    i.main_thread       main.o
    0x08003b08   0x00000018   Code   RO         2748    i.osDelay           RTX_CM4.lib(rt_cmsis.o)
    0x08003b20   0x00000024   Code   RO         2749    i.osKernelInitialize  RTX_CM4.lib(rt_cmsis.o)
    0x08003b44   0x0000006c   Code   RO         2751    i.osKernelStart     RTX_CM4.lib(rt_cmsis.o)
    0x08003bb0   0x00000018   Code   RO         2760    i.osMessageGet      RTX_CM4.lib(rt_cmsis.o)
    0x08003bc8   0x00000018   Code   RO         2774    i.osSignalClear     RTX_CM4.lib(rt_cmsis.o)
    0x08003be0   0x00000018   Code   RO         2775    i.osSignalSet       RTX_CM4.lib(rt_cmsis.o)
    0x08003bf8   0x00000018   Code   RO         2776    i.osSignalWait      RTX_CM4.lib(rt_cmsis.o)
    0x08003c10   0x00000030   Code   RO         2777    i.osThreadCreate    RTX_CM4.lib(rt_cmsis.o)
    0x08003c40   0x00000018   Code   RO         2778    i.osThreadExit      RTX_CM4.lib(rt_cmsis.o)
    0x08003c58   0x0000000c   Code   RO         2784    i.osTimerCall       RTX_CM4.lib(rt_cmsis.o)
    0x08003c64   0x00000034   Code   RO         2785    i.osTimerCreate     RTX_CM4.lib(rt_cmsis.o)
    0x08003c98   0x00000018   Code   RO         2787    i.osTimerStart      RTX_CM4.lib(rt_cmsis.o)
    0x08003cb0   0x0000002c   Code   RO         2789    i.osTimerThread     RTX_CM4.lib(rt_cmsis.o)
    0x08003cdc   0x00000020   Code   RO         2644    i.os_error          rtx_conf_cm.o
    0x08003cfc   0x00000004   Code   RO         2645    i.os_idle_demon     rtx_conf_cm.o
    0x08003d00   0x00000028   Code   RO         3488    i.os_tick_init      RTX_CM4.lib(rt_system.o)
    0x08003d28   0x00000002   Code   RO         3489    i.os_tick_irqack    RTX_CM4.lib(rt_system.o)
    0x08003d2a   0x00000002   PAD
    0x08003d2c   0x000000f8   Code   RO           35    i.pir_thread        main.o
    0x08003e24   0x00000234   Code   RO           36    i.polling_thread    main.o
    0x08004058   0x0000008c   Code   RO           37    i.read_joy          main.o
    0x080040e4   0x00000014   Code   RO           38    i.room_struct_apply  main.o
    0x080040f8   0x0000001a   Code   RO         3842    i.rt_alloc_box      RTX_CM4.lib(rt_membox.o)
    0x08004112   0x0000003e   Code   RO         3870    i.rt_alloc_mem      RTX_CM4.lib(rt_memory.o)
    0x08004150   0x00000038   Code   RO         3369    i.rt_block          RTX_CM4.lib(rt_task.o)
    0x08004188   0x00000048   Code   RO         3819    i.rt_chk_robin      RTX_CM4.lib(rt_robin.o)
    0x080041d0   0x00000070   Code   RO         3620    i.rt_dec_dly        RTX_CM4.lib(rt_list.o)
    0x08004240   0x00000044   Code   RO         3370    i.rt_dispatch       RTX_CM4.lib(rt_task.o)
    0x08004284   0x00000006   Code   RO         3786    i.rt_dly_wait       RTX_CM4.lib(rt_time.o)
    0x0800428a   0x00000002   PAD
    0x0800428c   0x0000001c   Code   RO         3579    i.rt_evt_clr        RTX_CM4.lib(rt_event.o)
    0x080042a8   0x00000050   Code   RO         3581    i.rt_evt_psh        RTX_CM4.lib(rt_event.o)
    0x080042f8   0x0000005c   Code   RO         3582    i.rt_evt_set        RTX_CM4.lib(rt_event.o)
    0x08004354   0x0000003c   Code   RO         3583    i.rt_evt_wait       RTX_CM4.lib(rt_event.o)
    0x08004390   0x0000002c   Code   RO         3843    i.rt_free_box       RTX_CM4.lib(rt_membox.o)
    0x080043bc   0x00000028   Code   RO         3871    i.rt_free_mem       RTX_CM4.lib(rt_memory.o)
    0x080043e4   0x00000028   Code   RO         3621    i.rt_get_first      RTX_CM4.lib(rt_list.o)
    0x0800440c   0x00000008   Code   RO         2794    i.rt_id2obj         RTX_CM4.lib(rt_cmsis.o)
    0x08004414   0x00000048   Code   RO         3371    i.rt_init_context   RTX_CM4.lib(rt_task.o)
    0x0800445c   0x0000001a   Code   RO         3872    i.rt_init_mem       RTX_CM4.lib(rt_memory.o)
    0x08004476   0x00000002   PAD
    0x08004478   0x00000018   Code   RO         3820    i.rt_init_robin     RTX_CM4.lib(rt_robin.o)
    0x08004490   0x00000080   Code   RO         3897    i.rt_init_stack     RTX_CM4.lib(hal_cm.o)
    0x08004510   0x00000008   Code   RO         3698    i.rt_mbx_check      RTX_CM4.lib(rt_mailbox.o)
    0x08004518   0x0000001a   Code   RO         3699    i.rt_mbx_init       RTX_CM4.lib(rt_mailbox.o)
    0x08004532   0x00000002   PAD
    0x08004534   0x000000f0   Code   RO         3700    i.rt_mbx_psh        RTX_CM4.lib(rt_mailbox.o)
    0x08004624   0x000000b4   Code   RO         3702    i.rt_mbx_wait       RTX_CM4.lib(rt_mailbox.o)
    0x080046d8   0x00000044   Code   RO         2795    i.rt_ms2tick        RTX_CM4.lib(rt_cmsis.o)
    0x0800471c   0x000000d8   Code   RO         3455    i.rt_mut_release    RTX_CM4.lib(rt_mutex.o)
    0x080047f4   0x00000068   Code   RO         3456    i.rt_mut_wait       RTX_CM4.lib(rt_mutex.o)
    0x0800485c   0x0000007c   Code   RO         3492    i.rt_pop_req        RTX_CM4.lib(rt_system.o)
    0x080048d8   0x00000020   Code   RO         3493    i.rt_psh_req        RTX_CM4.lib(rt_system.o)
    0x080048f8   0x0000005c   Code   RO         3623    i.rt_psq_enq        RTX_CM4.lib(rt_list.o)
    0x08004954   0x00000048   Code   RO         3624    i.rt_put_dly        RTX_CM4.lib(rt_list.o)
    0x0800499c   0x00000036   Code   RO         3625    i.rt_put_prio       RTX_CM4.lib(rt_list.o)
    0x080049d2   0x00000002   PAD
    0x080049d4   0x00000014   Code   RO         3626    i.rt_put_rdy_first  RTX_CM4.lib(rt_list.o)
    0x080049e8   0x00000034   Code   RO         3627    i.rt_resort_prio    RTX_CM4.lib(rt_list.o)
    0x08004a1c   0x00000010   Code   RO         3898    i.rt_ret_regs       RTX_CM4.lib(hal_cm.o)
    0x08004a2c   0x0000000c   Code   RO         3899    i.rt_ret_val        RTX_CM4.lib(hal_cm.o)
    0x08004a38   0x00000010   Code   RO         3900    i.rt_ret_val2       RTX_CM4.lib(hal_cm.o)
    0x08004a48   0x00000028   Code   RO         3628    i.rt_rmv_dly        RTX_CM4.lib(rt_list.o)
    0x08004a70   0x00000030   Code   RO         3629    i.rt_rmv_list       RTX_CM4.lib(rt_list.o)
    0x08004aa0   0x00000034   Code   RO         3747    i.rt_sem_psh        RTX_CM4.lib(rt_semaphore.o)
    0x08004ad4   0x00000024   Code   RO         3495    i.rt_stk_check      RTX_CM4.lib(rt_system.o)
    0x08004af8   0x00000028   Code   RO         3372    i.rt_switch_req     RTX_CM4.lib(rt_task.o)
    0x08004b20   0x000000cc   Code   RO         3373    i.rt_sys_init       RTX_CM4.lib(rt_task.o)
    0x08004bec   0x00000078   Code   RO         3374    i.rt_sys_start      RTX_CM4.lib(rt_task.o)
    0x08004c64   0x00000040   Code   RO         3497    i.rt_systick        RTX_CM4.lib(rt_system.o)
    0x08004ca4   0x00000012   Code   RO         2796    i.rt_tid2ptcb       RTX_CM4.lib(rt_cmsis.o)
    0x08004cb6   0x00000002   PAD
    0x08004cb8   0x00000034   Code   RO         2797    i.rt_timer_insert   RTX_CM4.lib(rt_cmsis.o)
    0x08004cec   0x0000003c   Code   RO         2798    i.rt_timer_remove   RTX_CM4.lib(rt_cmsis.o)
    0x08004d28   0x00000088   Code   RO         3375    i.rt_tsk_create     RTX_CM4.lib(rt_task.o)
    0x08004db0   0x00000178   Code   RO         3376    i.rt_tsk_delete     RTX_CM4.lib(rt_task.o)
    0x08004f28   0x0000007c   Code   RO         3378    i.rt_tsk_prio       RTX_CM4.lib(rt_task.o)
    0x08004fa4   0x00000010   Code   RO         3379    i.rt_tsk_self       RTX_CM4.lib(rt_task.o)
    0x08004fb4   0x00000108   Code   RO           39    i.settings_menu     main.o
    0x080050bc   0x000001d0   Code   RO           40    i.settings_theme_submenu  main.o
    0x0800528c   0x00000070   Code   RO           41    i.splash_screen     main.o
    0x080052fc   0x00000012   Code   RO         2799    i.svcDelay          RTX_CM4.lib(rt_cmsis.o)
    0x0800530e   0x00000002   PAD
    0x08005310   0x00000070   Code   RO         2800    i.svcKernelInitialize  RTX_CM4.lib(rt_cmsis.o)
    0x08005380   0x00000048   Code   RO         2802    i.svcKernelStart    RTX_CM4.lib(rt_cmsis.o)
    0x080053c8   0x00000024   Code   RO         2805    i.svcMessageCreate  RTX_CM4.lib(rt_cmsis.o)
    0x080053ec   0x0000003a   Code   RO         2806    i.svcMessageGet     RTX_CM4.lib(rt_cmsis.o)
    0x08005426   0x00000024   Code   RO         2817    i.svcSignalClear    RTX_CM4.lib(rt_cmsis.o)
    0x0800544a   0x00000024   Code   RO         2818    i.svcSignalSet      RTX_CM4.lib(rt_cmsis.o)
    0x0800546e   0x00000002   PAD
    0x08005470   0x00000054   Code   RO         2819    i.svcSignalWait     RTX_CM4.lib(rt_cmsis.o)
    0x080054c4   0x00000070   Code   RO         2820    i.svcThreadCreate   RTX_CM4.lib(rt_cmsis.o)
    0x08005534   0x0000001c   Code   RO         2821    i.svcThreadGetId    RTX_CM4.lib(rt_cmsis.o)
    0x08005550   0x00000038   Code   RO         2824    i.svcThreadTerminate  RTX_CM4.lib(rt_cmsis.o)
    0x08005588   0x00000018   Code   RO         2826    i.svcTimerCall      RTX_CM4.lib(rt_cmsis.o)
    0x080055a0   0x00000038   Code   RO         2827    i.svcTimerCreate    RTX_CM4.lib(rt_cmsis.o)
    0x080055d8   0x00000064   Code   RO         2829    i.svcTimerStart     RTX_CM4.lib(rt_cmsis.o)
    0x0800563c   0x0000005c   Code   RO         2835    i.sysTimerTick      RTX_CM4.lib(rt_cmsis.o)
    0x08005698   0x000002d0   Code   RO           42    i.timer_menu        main.o
    0x08005968   0x000000ac   Code   RO           43    i.update_bars       main.o
    0x08005a14   0x0000000a   Code   RO         4167    x$fpl$fpinit        fz_wm.l(fpinit.o)
    0x08005a1e   0x00000002   PAD
    0x08005a20   0x000001a8   Data   RO           45    .constdata          main.o
    0x08005bc8   0x00000010   Data   RO          442    .constdata          timer.o
    0x08005bd8   0x000029d0   Data   RO         1962    .constdata          stm32f4_discovery_lcd.o
    0x080085a8   0x000000c0   Data   RO         2201    .constdata          adc.o
    0x08008668   0x00000056   Data   RO         2647    .constdata          rtx_conf_cm.o
    0x080086be   0x00000011   Data   RO         3992    .constdata          c_w.l(__printf_flags_wp.o)
    0x080086cf   0x00000001   PAD
    0x080086d0   0x00000161   Data   RO           46    .conststring        main.o
    0x08008831   0x00000003   PAD
    0x08008834   0x00000020   Data   RO         4201    Region$$Table       anon$$obj.o


    Execution Region ER_RW (Base: 0x20000000, Size: 0x00000124, Max: 0xffffffff, ABSOLUTE)

    Base Addr    Size         Type   Attr      Idx    E Section Name        Object

    0x20000000   0x00000078   Data   RW           47    .data               main.o
    0x20000078   0x00000018   Data   RW          443    .data               timer.o
    0x20000090   0x00000010   Data   RW         1359    .data               stm32f4xx_rcc.o
    0x200000a0   0x00000028   Data   RW         1963    .data               stm32f4_discovery_lcd.o
    0x200000c8   0x00000010   Data   RW         2532    .data               tm_stm32f4_i2c.o
    0x200000d8   0x00000024   Data   RW         2648    .data               rtx_conf_cm.o
    0x200000fc   0x00000008   Data   RW         2838    .data               RTX_CM4.lib(rt_cmsis.o)
    0x20000104   0x00000008   Data   RW         3381    .data               RTX_CM4.lib(rt_task.o)
    0x2000010c   0x00000008   Data   RW         3500    .data               RTX_CM4.lib(rt_system.o)
    0x20000114   0x00000004   Data   RW         3790    .data               RTX_CM4.lib(rt_time.o)
    0x20000118   0x00000008   Data   RW         3821    .data               RTX_CM4.lib(rt_robin.o)
    0x20000120   0x00000001   Data   RW         3901    .data               RTX_CM4.lib(hal_cm.o)


    Execution Region ER_ZI (Base: 0x20000124, Size: 0x0000317c, Max: 0xffffffff, ABSOLUTE)

    Base Addr    Size         Type   Attr      Idx    E Section Name        Object

    0x20000124   0x00000057   Zero   RW           44    .bss                main.o
    0x2000017b   0x00000001   PAD
    0x2000017c   0x00000030   Zero   RW          441    .bss                timer.o
    0x200001ac   0x00000016   Zero   RW         2414    .bss                tm_stm32f4_gpio.o
    0x200001c2   0x00000006   PAD
    0x200001c8   0x00002a14   Zero   RW         2646    .bss                rtx_conf_cm.o
    0x20002bdc   0x00000034   Zero   RW         3380    .bss                RTX_CM4.lib(rt_task.o)
    0x20002c10   0x00000030   Zero   RW         3630    .bss                RTX_CM4.lib(rt_list.o)
    0x20002c40   0x00000060   Zero   RW         3963    .bss                c_w.l(libspace.o)
    0x20002ca0   0x00000200   Zero   RW         2698    HEAP                startup_stm32f407xx.o
    0x20002ea0   0x00000400   Zero   RW         2697    STACK               startup_stm32f407xx.o


==============================================================================

Image component sizes


      Code (inc. data)   RO Data    RW Data    ZI Data      Debug   Object Name

       400         32        192          0          0       3123   adc.o
      7654       1070        777        120         87     299194   main.o
       120         14          0          0          0       2972   misc.o
       124         26         86         36      10772       9235   rtx_conf_cm.o
        64         26        392          0       1536        864   startup_stm32f407xx.o
      1884        112      10704         40          0      17618   stm32f4_discovery_lcd.o
       406         24          0          0          0      21394   stm32f4xx_adc.o
       200         18          0          0          0       4948   stm32f4xx_exti.o
       282          6          0          0          0      10117   stm32f4xx_fsmc.o
       268          0          0          0          0       5285   stm32f4xx_gpio.o
       274         14          0          0          0      10328   stm32f4xx_i2c.o
       328         36          0         16          0      17783   stm32f4xx_rcc.o
        64          4          0          0          0        728   stm32f4xx_syscfg.o
       428          8          0          0          0      11501   stm32f4xx_usart.o
       100         18          0          0          0        525   system_stm32f4xx.o
       156         38         16         24         48      21702   timer.o
       562         66          0          0          0      10975   tm_stm32f4_ds1307.o
       332         10          0          0         22       3697   tm_stm32f4_gpio.o
      1086         92          0         16          0       8637   tm_stm32f4_i2c.o

    ----------------------------------------------------------------------
     14752       1614      12202        252      12472     460626   Object Totals
         0          0         32          0          0          0   (incl. Generated)
        20          0          3          0          7          0   (incl. Padding)

    ----------------------------------------------------------------------

      Code (inc. data)   RO Data    RW Data    ZI Data      Debug   Library Member Name

       268         24          0          1          0       4372   hal_cm.o
       408         34          0          0          0        804   hal_cm4.o
      1716        190          0          8          0      43299   rt_cmsis.o
       300         24          0          0          0       3331   rt_event.o
       530         34          0          0         48       8525   rt_list.o
       550         10          0          0          0       4125   rt_mailbox.o
       140          0          0          0          0       2009   rt_membox.o
       128          0          0          0          0       2383   rt_memory.o
       320         12          0          0          0       1679   rt_mutex.o
        96         22          0          8          0       1206   rt_robin.o
        52          4          0          0          0        605   rt_semaphore.o
       298         52          0          8          0       6379   rt_system.o
      1212        174          0          8         52       9933   rt_task.o
         6          0          0          4          0        668   rt_time.o
         4          4          0          0          0        188   svc_table.o
         8          0          0          0          0         68   __main.o
       312          4         17          0          0         92   __printf_flags_wp.o
        14          0          0          0          0         68   __printf_wp.o
         0          0          0          0          0          0   __rtentry.o
        20          0          0          0          0          0   __rtentry2.o
         6          0          0          0          0          0   __rtentry4.o
        52          8          0          0          0          0   __scatter.o
        26          0          0          0          0          0   __scatter_copy.o
        28          0          0          0          0          0   __scatter_zi.o
        44          0          0          0          0        108   _printf_char.o
        48          6          0          0          0         96   _printf_char_common.o
         6          0          0          0          0          0   _printf_d.o
       120         16          0          0          0         92   _printf_dec.o
       178          0          0          0          0         88   _printf_intcommon.o
        78          0          0          0          0        108   _printf_pad.o
         0          0          0          0          0          0   _printf_percent.o
         4          0          0          0          0          0   _printf_percent_end.o
         6          0          0          0          0          0   _printf_s.o
        82          0          0          0          0         80   _printf_str.o
        10          0          0          0          0         68   _sputc.o
        18          0          0          0          0         80   exit.o
         6          0          0          0          0        152   heapauxi.o
         0          0          0          0          0          0   indicate_semi.o
         2          0          0          0          0          0   libinit.o
         6          0          0          0          0          0   libinit2.o
         2          0          0          0          0          0   libshutdown.o
         2          0          0          0          0          0   libshutdown2.o
         8          4          0          0         96         68   libspace.o
       238          0          0          0          0        100   lludivv7m.o
        40          6          0          0          0         84   noretval__2sprintf.o
       100          0          0          0          0         80   rt_memcpy_w.o
         2          0          0          0          0          0   rtexit.o
        10          0          0          0          0          0   rtexit2.o
       128          0          0          0          0         68   strcmpv7m.o
        72          0          0          0          0         80   strcpy.o
        62          0          0          0          0         76   strlen.o
        36          0          0          0          0         80   strstr.o
        12          4          0          0          0         68   sys_exit.o
        74          0          0          0          0         80   sys_stackheap_outer.o
         2          0          0          0          0         68   use_no_semi.o
        10          0          0          0          0        116   fpinit.o

    ----------------------------------------------------------------------
      7928        632         18         40        196      91574   Library Totals
        28          0          1          3          0          0   (incl. Padding)

    ----------------------------------------------------------------------

      Code (inc. data)   RO Data    RW Data    ZI Data      Debug   Library Name

      6028        584          0         37        100      89506   RTX_CM4.lib
      1862         48         17          0         96       1952   c_w.l
        10          0          0          0          0        116   fz_wm.l

    ----------------------------------------------------------------------
      7928        632         18         40        196      91574   Library Totals

    ----------------------------------------------------------------------

==============================================================================


      Code (inc. data)   RO Data    RW Data    ZI Data      Debug   

     22680       2246      12220        292      12668     528912   Grand Totals
     22680       2246      12220        292      12668     528912   ELF Image Totals
     22680       2246      12220        292          0          0   ROM Totals

==============================================================================

    Total RO  Size (Code + RO Data)                34900 (  34.08kB)
    Total RW  Size (RW Data + ZI Data)             12960 (  12.66kB)
    Total ROM Size (Code + RO Data + RW Data)      35192 (  34.37kB)

==============================================================================

